ASxxxx Linker V03.00 + NoICE + sdld,  page 1.
Hexadecimal  [32-Bits]

Area                                    Addr        Size        Decimal Bytes (Attributes)
--------------------------------        ----        ----        ------- ----- ------------
.  .ABS.                            00000000    00000000 =           0. bytes (ABS,CON)

      Value  Global                              Global Defined In Module
      -----  --------------------------------   ------------------------
     00000000  .__.ABS.                           
     00000000  l__BSEG                         
     00000000  l__BSS                          
     00000000  l__CABS                         
     00000000  l__DABS                         
     00000000  l__HEAP                         
     00000000  s__CABS                         
     00000000  s__DABS                         
     00000001  l__GSFINAL                      
     00000006  l__DATA                         
     00000008  l__INITIALIZED                  
     00000008  l__INITIALIZER                  
     0000000F  l__GSINIT                       
     00000145  l__HOME                         
     00003D6A  l__CODE                         
     00004000  s__CODE                         
     00007D6A  s__HOME                         
     00007EAF  s__INITIALIZER                  
     00007EB7  s__GSINIT                       
     00007EC6  s__GSFINAL                      
     0000C0DE  s__DATA                         
     0000C0E4  s__INITIALIZED                  
     0000C0EC  s__BSEG                         
     0000C0EC  s__BSS                          
     0000C0EC  s__HEAP                         

ASxxxx Linker V03.00 + NoICE + sdld,  page 2.
Hexadecimal  [32-Bits]

Area                                    Addr        Size        Decimal Bytes (Attributes)
--------------------------------        ----        ----        ------- ----- ------------
_CODE                               00004000    00003D6A =       15722. bytes (REL,CON)

      Value  Global                              Global Defined In Module
      -----  --------------------------------   ------------------------
     00004010  _main_init                         crt0
     00004041  A$printfld/printf$61               printf
     00004041  C$printf.c$133$0_0$12              printf
     00004041  C$printf.c$135$1_0$12              printf
     00004041  Fprintf$_out_buffer$0$0            printf
     00004044  A$printfld/printf$62               printf
     00004045  A$printfld/printf$63               printf
     00004049  A$printfld/printf$64               printf
     0000404B  A$printfld/printf$65               printf
     0000404E  A$printfld/printf$66               printf
     0000404F  A$printfld/printf$67               printf
     00004052  A$printfld/printf$68               printf
     00004053  A$printfld/printf$69               printf
     00004054  A$printfld/printf$70               printf
     00004055  A$printfld/printf$74               printf
     00004055  C$printf.c$136$2_0$13              printf
     00004057  A$printfld/printf$75               printf
     00004059  A$printfld/printf$76               printf
     0000405C  A$printfld/printf$77               printf
     0000405F  A$printfld/printf$78               printf
     00004062  A$printfld/printf$79               printf
     00004063  A$printfld/printf$80               printf
     00004064  A$printfld/printf$81               printf
     00004065  A$printfld/printf$82               printf
     00004066  A$printfld/printf$83               printf
     00004067  A$printfld/printf$84               printf
     00004068  A$printfld/printf$85               printf
     00004069  A$printfld/printf$86               printf
     0000406B  A$printfld/printf$87               printf
     0000406E  A$printfld/printf$88               printf
     0000406F  A$printfld/printf$96               printf
     0000406F  C$printf.c$138$1_0$12              printf
     0000406F  XFprintf$_out_buffer$0$0           printf
     00004070  A$printfld/printf$116              printf
     00004070  C$printf.c$142$1_0$15              printf
     00004070  C$printf.c$144$1_0$15              printf
     00004070  C$printf.c$145$1_0$15              printf
     00004070  Fprintf$_out_null$0$0              printf
     00004070  XFprintf$_out_null$0$0             printf
     00004071  A$printfld/printf$129              printf
     00004071  C$printf.c$149$1_0$17              printf
     00004071  C$printf.c$152$1_0$17              printf
     00004071  Fprintf$_out_char$0$0              printf
     00004075  A$printfld/printf$130              printf
     00004077  A$printfld/printf$131              printf
     0000407A  A$printfld/printf$132              printf
     0000407B  A$printfld/printf$133              printf
     0000407C  A$printfld/printf$137              printf
     0000407C  C$printf.c$153$2_0$18              printf
     0000407F  A$printfld/printf$138              printf
ASxxxx Linker V03.00 + NoICE + sdld,  page 3.
Hexadecimal  [32-Bits]

Area                                    Addr        Size        Decimal Bytes (Attributes)
--------------------------------        ----        ----        ------- ----- ------------
_CODE                               00004000    00003D6A =       15722. bytes (REL,CON)

      Value  Global                              Global Defined In Module
      -----  --------------------------------   ------------------------
     00004080  A$printfld/printf$139              printf
     00004081  A$printfld/printf$140              printf
     00004084  A$printfld/printf$141              printf
     00004085  A$printfld/printf$149              printf
     00004085  C$printf.c$155$1_0$17              printf
     00004085  XFprintf$_out_char$0$0             printf
     00004086  A$printfld/printf$162              printf
     00004086  C$printf.c$159$1_0$20              printf
     00004086  C$printf.c$162$1_0$20              printf
     00004086  Fprintf$_out_fct$0$0               printf
     0000408A  A$printfld/printf$163              printf
     0000408C  A$printfld/printf$164              printf
     0000408F  A$printfld/printf$165              printf
     00004090  A$printfld/printf$166              printf
     00004091  A$printfld/printf$170              printf
     00004091  C$printf.c$164$1_0$20              printf
     00004093  A$printfld/printf$171              printf
     00004096  A$printfld/printf$172              printf
     00004099  A$printfld/printf$173              printf
     0000409A  A$printfld/printf$174              printf
     0000409B  A$printfld/printf$175              printf
     0000409C  A$printfld/printf$176              printf
     0000409D  A$printfld/printf$177              printf
     0000409E  A$printfld/printf$178              printf
     0000409F  A$printfld/printf$179              printf
     000040A0  A$printfld/printf$180              printf
     000040A1  A$printfld/printf$181              printf
     000040A3  A$printfld/printf$182              printf
     000040A6  A$printfld/printf$183              printf
     000040A7  A$printfld/printf$184              printf
     000040A8  A$printfld/printf$185              printf
     000040A9  A$printfld/printf$186              printf
     000040AA  A$printfld/printf$187              printf
     000040AD  A$printfld/printf$188              printf
     000040AE  A$printfld/printf$189              printf
     000040AF  A$printfld/printf$197              printf
     000040AF  C$printf.c$166$1_0$20              printf
     000040AF  XFprintf$_out_fct$0$0              printf
     000040B0  A$printfld/printf$207              printf
     000040B0  C$printf.c$171$1_0$23              printf
     000040B0  Fprintf$_strnlen_s$0$0             printf
     000040B1  A$printfld/printf$211              printf
     000040B1  C$printf.c$174$2_0$24              printf
     000040B5  A$printfld/printf$212              printf
     000040B7  A$printfld/printf$213              printf
     000040BA  A$printfld/printf$214              printf
     000040BD  A$printfld/printf$215              printf
     000040BF  A$printfld/printf$216              printf
     000040C1  A$printfld/printf$217              printf
     000040C4  A$printfld/printf$218              printf
     000040C7  A$printfld/printf$220              printf
ASxxxx Linker V03.00 + NoICE + sdld,  page 4.
Hexadecimal  [32-Bits]

Area                                    Addr        Size        Decimal Bytes (Attributes)
--------------------------------        ----        ----        ------- ----- ------------
_CODE                               00004000    00003D6A =       15722. bytes (REL,CON)

      Value  Global                              Global Defined In Module
      -----  --------------------------------   ------------------------
     000040C8  A$printfld/printf$221              printf
     000040C9  A$printfld/printf$222              printf
     000040CB  A$printfld/printf$223              printf
     000040CC  A$printfld/printf$224              printf
     000040CD  A$printfld/printf$225              printf
     000040CE  A$printfld/printf$226              printf
     000040CF  A$printfld/printf$227              printf
     000040D2  A$printfld/printf$228              printf
     000040D3  A$printfld/printf$229              printf
     000040D4  A$printfld/printf$230              printf
     000040D5  A$printfld/printf$231              printf
     000040D6  A$printfld/printf$232              printf
     000040D8  A$printfld/printf$233              printf
     000040D9  A$printfld/printf$234              printf
     000040DB  A$printfld/printf$239              printf
     000040DB  C$printf.c$175$1_0$23              printf
     000040DE  A$printfld/printf$240              printf
     000040DF  A$printfld/printf$241              printf
     000040E0  A$printfld/printf$242              printf
     000040E1  A$printfld/printf$243              printf
     000040E2  A$printfld/printf$244              printf
     000040E3  A$printfld/printf$245              printf
     000040E4  A$printfld/printf$246              printf
     000040E5  A$printfld/printf$247              printf
     000040E6  A$printfld/printf$248              printf
     000040E7  A$printfld/printf$252              printf
     000040E8  A$printfld/printf$257              printf
     000040E8  C$printf.c$176$1_0$23              printf
     000040E8  XFprintf$_strnlen_s$0$0            printf
     000040E9  A$printfld/printf$270              printf
     000040E9  C$printf.c$181$1_0$26              printf
     000040E9  C$printf.c$183$1_0$26              printf
     000040E9  Fprintf$_is_digit$0$0              printf
     000040ED  A$printfld/printf$271              printf
     000040EF  A$printfld/printf$272              printf
     000040F2  A$printfld/printf$273              printf
     000040F4  A$printfld/printf$274              printf
     000040F6  A$printfld/printf$275              printf
     000040F8  A$printfld/printf$276              printf
     000040FA  A$printfld/printf$277              printf
     000040FD  A$printfld/printf$278              printf
     00004100  A$printfld/printf$279              printf
     00004102  A$printfld/printf$281              printf
     00004105  A$printfld/printf$283              printf
     00004107  A$printfld/printf$284              printf
     00004108  A$printfld/printf$286              printf
     0000410A  A$printfld/printf$294              printf
     0000410A  C$printf.c$184$1_0$26              printf
     0000410A  XFprintf$_is_digit$0$0             printf
     0000410B  A$printfld/printf$304              printf
     0000410B  C$printf.c$188$1_0$28              printf
ASxxxx Linker V03.00 + NoICE + sdld,  page 5.
Hexadecimal  [32-Bits]

Area                                    Addr        Size        Decimal Bytes (Attributes)
--------------------------------        ----        ----        ------- ----- ------------
_CODE                               00004000    00003D6A =       15722. bytes (REL,CON)

      Value  Global                              Global Defined In Module
      -----  --------------------------------   ------------------------
     0000410B  Fprintf$_atoi$0$0                  printf
     0000410C  A$printfld/printf$305              printf
     0000410D  A$printfld/printf$309              printf
     0000410D  C$printf.c$190$2_0$28              printf
     0000410E  A$printfld/printf$310              printf
     00004112  A$printfld/printf$311              printf
     00004114  A$printfld/printf$312              printf
     00004117  A$printfld/printf$313              printf
     0000411A  A$printfld/printf$318              printf
     0000411A  C$printf.c$191$1_0$28              printf
     0000411D  A$printfld/printf$319              printf
     0000411E  A$printfld/printf$320              printf
     0000411F  A$printfld/printf$321              printf
     00004120  A$printfld/printf$322              printf
     00004121  A$printfld/printf$323              printf
     00004122  A$printfld/printf$324              printf
     00004123  A$printfld/printf$325              printf
     00004124  A$printfld/printf$326              printf
     00004125  A$printfld/printf$327              printf
     00004126  A$printfld/printf$328              printf
     00004127  A$printfld/printf$332              printf
     00004127  C$printf.c$183$4_0$32              printf
     00004128  A$printfld/printf$333              printf
     0000412A  A$printfld/printf$334              printf
     0000412C  A$printfld/printf$335              printf
     0000412E  A$printfld/printf$336              printf
     00004130  A$printfld/printf$337              printf
     00004131  A$printfld/printf$338              printf
     00004134  A$printfld/printf$339              printf
     00004136  A$printfld/printf$341              printf
     00004139  A$printfld/printf$345              printf
     00004139  C$printf.c$192$2_0$29              printf
     0000413A  A$printfld/printf$346              printf
     0000413E  A$printfld/printf$347              printf
     00004140  A$printfld/printf$348              printf
     00004143  A$printfld/printf$349              printf
     00004146  A$printfld/printf$350              printf
     00004147  A$printfld/printf$351              printf
     00004148  A$printfld/printf$352              printf
     00004149  A$printfld/printf$353              printf
     0000414A  A$printfld/printf$354              printf
     0000414B  A$printfld/printf$355              printf
     0000414C  A$printfld/printf$356              printf
     0000414D  A$printfld/printf$357              printf
     0000414E  A$printfld/printf$358              printf
     00004151  A$printfld/printf$359              printf
     00004152  A$printfld/printf$360              printf
     00004155  A$printfld/printf$361              printf
     00004158  A$printfld/printf$362              printf
     0000415B  A$printfld/printf$363              printf
     0000415C  A$printfld/printf$364              printf
ASxxxx Linker V03.00 + NoICE + sdld,  page 6.
Hexadecimal  [32-Bits]

Area                                    Addr        Size        Decimal Bytes (Attributes)
--------------------------------        ----        ----        ------- ----- ------------
_CODE                               00004000    00003D6A =       15722. bytes (REL,CON)

      Value  Global                              Global Defined In Module
      -----  --------------------------------   ------------------------
     0000415D  A$printfld/printf$365              printf
     00004160  A$printfld/printf$366              printf
     00004161  A$printfld/printf$367              printf
     00004162  A$printfld/printf$368              printf
     00004163  A$printfld/printf$369              printf
     00004164  A$printfld/printf$370              printf
     00004165  A$printfld/printf$371              printf
     00004166  A$printfld/printf$372              printf
     00004167  A$printfld/printf$373              printf
     00004169  A$printfld/printf$374              printf
     0000416A  A$printfld/printf$375              printf
     0000416B  A$printfld/printf$376              printf
     0000416D  A$printfld/printf$377              printf
     0000416E  A$printfld/printf$378              printf
     0000416F  A$printfld/printf$379              printf
     00004170  A$printfld/printf$380              printf
     00004171  A$printfld/printf$381              printf
     00004174  A$printfld/printf$382              printf
     00004177  A$printfld/printf$383              printf
     00004179  A$printfld/printf$388              printf
     00004179  C$printf.c$194$1_0$28              printf
     0000417A  A$printfld/printf$389              printf
     0000417B  A$printfld/printf$390              printf
     0000417C  A$printfld/printf$391              printf
     0000417D  A$printfld/printf$395              printf
     0000417E  A$printfld/printf$396              printf
     0000417F  A$printfld/printf$401              printf
     0000417F  C$printf.c$195$1_0$28              printf
     0000417F  XFprintf$_atoi$0$0                 printf
     00004180  A$printfld/printf$411              printf
     00004180  C$printf.c$199$1_0$34              printf
     00004180  Fprintf$_out_rev$0$0               printf
     00004183  A$printfld/printf$412              printf
     00004184  A$printfld/printf$413              printf
     00004185  A$printfld/printf$417              printf
     00004185  C$printf.c$201$2_0$34              printf
     00004188  A$printfld/printf$418              printf
     00004189  A$printfld/printf$419              printf
     0000418A  A$printfld/printf$420              printf
     0000418E  A$printfld/printf$421              printf
     00004190  A$printfld/printf$422              printf
     00004193  A$printfld/printf$423              printf
     00004196  A$printfld/printf$424              printf
     00004197  A$printfld/printf$425              printf
     00004198  A$printfld/printf$426              printf
     0000419C  A$printfld/printf$427              printf
     0000419E  A$printfld/printf$428              printf
     000041A1  A$printfld/printf$432              printf
     000041A1  C$printf.c$204$1_0$34              printf
     000041A4  A$printfld/printf$433              printf
     000041A5  A$printfld/printf$434              printf
ASxxxx Linker V03.00 + NoICE + sdld,  page 7.
Hexadecimal  [32-Bits]

Area                                    Addr        Size        Decimal Bytes (Attributes)
--------------------------------        ----        ----        ------- ----- ------------
_CODE                               00004000    00003D6A =       15722. bytes (REL,CON)

      Value  Global                              Global Defined In Module
      -----  --------------------------------   ------------------------
     000041A6  A$printfld/printf$435              printf
     000041A8  A$printfld/printf$436              printf
     000041AC  A$printfld/printf$437              printf
     000041AE  A$printfld/printf$438              printf
     000041B1  A$printfld/printf$439              printf
     000041B5  A$printfld/printf$440              printf
     000041B8  A$printfld/printf$441              printf
     000041BB  A$printfld/printf$442              printf
     000041BE  A$printfld/printf$443              printf
     000041C1  A$printfld/printf$444              printf
     000041C2  A$printfld/printf$445              printf
     000041C3  A$printfld/printf$446              printf
     000041C4  A$printfld/printf$447              printf
     000041C7  A$printfld/printf$451              printf
     000041C7  C$printf.c$205$4_0$36              printf
     000041CA  A$printfld/printf$452              printf
     000041CB  A$printfld/printf$453              printf
     000041CC  A$printfld/printf$454              printf
     000041CD  A$printfld/printf$455              printf
     000041CE  A$printfld/printf$456              printf
     000041CF  A$printfld/printf$457              printf
     000041D0  A$printfld/printf$459              printf
     000041D3  A$printfld/printf$460              printf
     000041D4  A$printfld/printf$461              printf
     000041D5  A$printfld/printf$462              printf
     000041D6  A$printfld/printf$463              printf
     000041D7  A$printfld/printf$464              printf
     000041D8  A$printfld/printf$465              printf
     000041D9  A$printfld/printf$466              printf
     000041DB  A$printfld/printf$470              printf
     000041DB  C$printf.c$206$4_0$37              printf
     000041DF  A$printfld/printf$471              printf
     000041E1  A$printfld/printf$472              printf
     000041E4  A$printfld/printf$473              printf
     000041E7  A$printfld/printf$474              printf
     000041E8  A$printfld/printf$475              printf
     000041EC  A$printfld/printf$476              printf
     000041EE  A$printfld/printf$477              printf
     000041F1  A$printfld/printf$478              printf
     000041F4  A$printfld/printf$479              printf
     000041F6  A$printfld/printf$480              printf
     000041F8  A$printfld/printf$481              printf
     000041FB  A$printfld/printf$482              printf
     000041FF  A$printfld/printf$483              printf
     00004201  A$printfld/printf$484              printf
     00004204  A$printfld/printf$485              printf
     00004207  A$printfld/printf$486              printf
     00004208  A$printfld/printf$487              printf
     00004209  A$printfld/printf$488              printf
     0000420D  A$printfld/printf$489              printf
     0000420F  A$printfld/printf$490              printf
ASxxxx Linker V03.00 + NoICE + sdld,  page 8.
Hexadecimal  [32-Bits]

Area                                    Addr        Size        Decimal Bytes (Attributes)
--------------------------------        ----        ----        ------- ----- ------------
_CODE                               00004000    00003D6A =       15722. bytes (REL,CON)

      Value  Global                              Global Defined In Module
      -----  --------------------------------   ------------------------
     00004212  A$printfld/printf$491              printf
     00004213  A$printfld/printf$492              printf
     00004214  A$printfld/printf$493              printf
     00004217  A$printfld/printf$494              printf
     00004218  A$printfld/printf$495              printf
     00004219  A$printfld/printf$496              printf
     0000421A  A$printfld/printf$497              printf
     0000421B  A$printfld/printf$498              printf
     0000421C  A$printfld/printf$499              printf
     00004220  A$printfld/printf$500              printf
     00004222  A$printfld/printf$501              printf
     00004225  A$printfld/printf$502              printf
     00004228  A$printfld/printf$503              printf
     00004229  A$printfld/printf$504              printf
     0000422B  A$printfld/printf$505              printf
     0000422D  A$printfld/printf$506              printf
     00004230  A$printfld/printf$507              printf
     00004233  A$printfld/printf$508              printf
     00004234  A$printfld/printf$509              printf
     00004236  A$printfld/printf$510              printf
     00004237  A$printfld/printf$511              printf
     00004238  A$printfld/printf$512              printf
     0000423B  A$printfld/printf$513              printf
     0000423C  A$printfld/printf$514              printf
     0000423D  A$printfld/printf$515              printf
     0000423E  A$printfld/printf$516              printf
     0000423F  A$printfld/printf$517              printf
     00004240  A$printfld/printf$518              printf
     00004243  A$printfld/printf$519              printf
     00004246  A$printfld/printf$520              printf
     00004247  A$printfld/printf$521              printf
     00004248  A$printfld/printf$522              printf
     00004249  A$printfld/printf$523              printf
     0000424A  A$printfld/printf$527              printf
     0000424A  C$printf.c$205$3_0$36              printf
     0000424B  A$printfld/printf$528              printf
     0000424D  A$printfld/printf$533              printf
     0000424D  C$printf.c$211$1_0$34              printf
     00004251  A$printfld/printf$534              printf
     00004253  A$printfld/printf$535              printf
     00004256  A$printfld/printf$536              printf
     00004259  A$printfld/printf$538              printf
     0000425C  A$printfld/printf$539              printf
     0000425D  A$printfld/printf$540              printf
     0000425E  A$printfld/printf$541              printf
     0000425F  A$printfld/printf$542              printf
     00004260  A$printfld/printf$543              printf
     00004263  A$printfld/printf$544              printf
     00004264  A$printfld/printf$545              printf
     00004265  A$printfld/printf$546              printf
     00004266  A$printfld/printf$547              printf
ASxxxx Linker V03.00 + NoICE + sdld,  page 9.
Hexadecimal  [32-Bits]

Area                                    Addr        Size        Decimal Bytes (Attributes)
--------------------------------        ----        ----        ------- ----- ------------
_CODE                               00004000    00003D6A =       15722. bytes (REL,CON)

      Value  Global                              Global Defined In Module
      -----  --------------------------------   ------------------------
     00004267  A$printfld/printf$549              printf
     00004268  A$printfld/printf$550              printf
     00004269  A$printfld/printf$551              printf
     0000426C  A$printfld/printf$555              printf
     0000426C  C$printf.c$212$2_0$38              printf
     00004270  A$printfld/printf$556              printf
     00004272  A$printfld/printf$557              printf
     00004275  A$printfld/printf$558              printf
     00004278  A$printfld/printf$559              printf
     00004279  A$printfld/printf$560              printf
     0000427D  A$printfld/printf$561              printf
     0000427F  A$printfld/printf$562              printf
     00004282  A$printfld/printf$563              printf
     00004285  A$printfld/printf$564              printf
     00004287  A$printfld/printf$565              printf
     00004289  A$printfld/printf$566              printf
     0000428C  A$printfld/printf$567              printf
     00004290  A$printfld/printf$568              printf
     00004292  A$printfld/printf$569              printf
     00004295  A$printfld/printf$570              printf
     00004298  A$printfld/printf$571              printf
     00004299  A$printfld/printf$572              printf
     0000429A  A$printfld/printf$573              printf
     0000429E  A$printfld/printf$574              printf
     000042A0  A$printfld/printf$575              printf
     000042A3  A$printfld/printf$576              printf
     000042A4  A$printfld/printf$577              printf
     000042A7  A$printfld/printf$578              printf
     000042A8  A$printfld/printf$579              printf
     000042AC  A$printfld/printf$580              printf
     000042AE  A$printfld/printf$581              printf
     000042B1  A$printfld/printf$582              printf
     000042B2  A$printfld/printf$583              printf
     000042B3  A$printfld/printf$584              printf
     000042B6  A$printfld/printf$585              printf
     000042B7  A$printfld/printf$586              printf
     000042B8  A$printfld/printf$587              printf
     000042B9  A$printfld/printf$588              printf
     000042BD  A$printfld/printf$589              printf
     000042BF  A$printfld/printf$590              printf
     000042C2  A$printfld/printf$591              printf
     000042C5  A$printfld/printf$592              printf
     000042C6  A$printfld/printf$593              printf
     000042C8  A$printfld/printf$594              printf
     000042CB  A$printfld/printf$595              printf
     000042CC  A$printfld/printf$596              printf
     000042CD  A$printfld/printf$597              printf
     000042D0  A$printfld/printf$598              printf
     000042D1  A$printfld/printf$599              printf
     000042D2  A$printfld/printf$600              printf
     000042D3  A$printfld/printf$601              printf
ASxxxx Linker V03.00 + NoICE + sdld,  page 10.
Hexadecimal  [32-Bits]

Area                                    Addr        Size        Decimal Bytes (Attributes)
--------------------------------        ----        ----        ------- ----- ------------
_CODE                               00004000    00003D6A =       15722. bytes (REL,CON)

      Value  Global                              Global Defined In Module
      -----  --------------------------------   ------------------------
     000042D4  A$printfld/printf$602              printf
     000042D5  A$printfld/printf$603              printf
     000042D9  A$printfld/printf$604              printf
     000042DB  A$printfld/printf$605              printf
     000042DE  A$printfld/printf$606              printf
     000042E1  A$printfld/printf$607              printf
     000042E2  A$printfld/printf$608              printf
     000042E4  A$printfld/printf$609              printf
     000042E6  A$printfld/printf$610              printf
     000042E9  A$printfld/printf$611              printf
     000042EC  A$printfld/printf$612              printf
     000042ED  A$printfld/printf$613              printf
     000042EF  A$printfld/printf$614              printf
     000042F1  A$printfld/printf$615              printf
     000042F3  A$printfld/printf$616              printf
     000042F6  A$printfld/printf$617              printf
     000042F7  A$printfld/printf$618              printf
     000042F8  A$printfld/printf$619              printf
     000042FA  A$printfld/printf$620              printf
     000042FC  A$printfld/printf$621              printf
     000042FE  A$printfld/printf$622              printf
     00004301  A$printfld/printf$623              printf
     00004304  A$printfld/printf$624              printf
     00004307  A$printfld/printf$625              printf
     0000430A  A$printfld/printf$626              printf
     0000430B  A$printfld/printf$627              printf
     0000430C  A$printfld/printf$628              printf
     0000430D  A$printfld/printf$629              printf
     0000430E  A$printfld/printf$630              printf
     00004311  A$printfld/printf$632              printf
     00004315  A$printfld/printf$633              printf
     00004317  A$printfld/printf$634              printf
     0000431A  A$printfld/printf$635              printf
     0000431D  A$printfld/printf$639              printf
     0000431D  C$printf.c$216$1_0$34              printf
     00004320  A$printfld/printf$640              printf
     00004321  A$printfld/printf$641              printf
     00004322  A$printfld/printf$642              printf
     00004323  A$printfld/printf$643              printf
     00004324  A$printfld/printf$644              printf
     00004327  A$printfld/printf$648              printf
     00004327  C$printf.c$217$1_0$34              printf
     0000432B  A$printfld/printf$649              printf
     0000432D  A$printfld/printf$650              printf
     00004330  A$printfld/printf$651              printf
     00004333  A$printfld/printf$653              printf
     00004336  A$printfld/printf$654              printf
     00004337  A$printfld/printf$655              printf
     0000433B  A$printfld/printf$656              printf
     0000433D  A$printfld/printf$657              printf
     00004340  A$printfld/printf$658              printf
ASxxxx Linker V03.00 + NoICE + sdld,  page 11.
Hexadecimal  [32-Bits]

Area                                    Addr        Size        Decimal Bytes (Attributes)
--------------------------------        ----        ----        ------- ----- ------------
_CODE                               00004000    00003D6A =       15722. bytes (REL,CON)

      Value  Global                              Global Defined In Module
      -----  --------------------------------   ------------------------
     00004341  A$printfld/printf$659              printf
     00004342  A$printfld/printf$660              printf
     00004345  A$printfld/printf$661              printf
     00004346  A$printfld/printf$662              printf
     00004347  A$printfld/printf$663              printf
     00004348  A$printfld/printf$664              printf
     0000434B  A$printfld/printf$665              printf
     0000434C  A$printfld/printf$666              printf
     0000434D  A$printfld/printf$667              printf
     0000434E  A$printfld/printf$668              printf
     0000434F  A$printfld/printf$669              printf
     00004350  A$printfld/printf$670              printf
     00004351  A$printfld/printf$671              printf
     00004353  A$printfld/printf$675              printf
     00004353  C$printf.c$218$3_0$40              printf
     00004356  A$printfld/printf$676              printf
     00004359  A$printfld/printf$677              printf
     0000435C  A$printfld/printf$678              printf
     0000435E  A$printfld/printf$679              printf
     00004361  A$printfld/printf$681              printf
     00004364  A$printfld/printf$682              printf
     00004368  A$printfld/printf$683              printf
     0000436A  A$printfld/printf$684              printf
     0000436D  A$printfld/printf$685              printf
     00004370  A$printfld/printf$686              printf
     00004371  A$printfld/printf$687              printf
     00004372  A$printfld/printf$688              printf
     00004376  A$printfld/printf$689              printf
     00004378  A$printfld/printf$690              printf
     0000437B  A$printfld/printf$691              printf
     0000437D  A$printfld/printf$692              printf
     0000437F  A$printfld/printf$693              printf
     00004382  A$printfld/printf$694              printf
     00004385  A$printfld/printf$695              printf
     00004388  A$printfld/printf$696              printf
     00004389  A$printfld/printf$697              printf
     0000438A  A$printfld/printf$698              printf
     0000438B  A$printfld/printf$699              printf
     0000438C  A$printfld/printf$700              printf
     0000438D  A$printfld/printf$701              printf
     0000438E  A$printfld/printf$702              printf
     0000438F  A$printfld/printf$703              printf
     00004390  A$printfld/printf$704              printf
     00004392  A$printfld/printf$705              printf
     00004393  A$printfld/printf$706              printf
     00004394  A$printfld/printf$707              printf
     00004397  A$printfld/printf$708              printf
     00004398  A$printfld/printf$709              printf
     00004399  A$printfld/printf$710              printf
     0000439A  A$printfld/printf$711              printf
     0000439B  A$printfld/printf$712              printf
ASxxxx Linker V03.00 + NoICE + sdld,  page 12.
Hexadecimal  [32-Bits]

Area                                    Addr        Size        Decimal Bytes (Attributes)
--------------------------------        ----        ----        ------- ----- ------------
_CODE                               00004000    00003D6A =       15722. bytes (REL,CON)

      Value  Global                              Global Defined In Module
      -----  --------------------------------   ------------------------
     0000439C  A$printfld/printf$713              printf
     0000439F  A$printfld/printf$714              printf
     000043A2  A$printfld/printf$715              printf
     000043A3  A$printfld/printf$716              printf
     000043A4  A$printfld/printf$717              printf
     000043A6  A$printfld/printf$719              printf
     000043A9  A$printfld/printf$720              printf
     000043AA  A$printfld/printf$721              printf
     000043AB  A$printfld/printf$722              printf
     000043AF  A$printfld/printf$723              printf
     000043B1  A$printfld/printf$724              printf
     000043B4  A$printfld/printf$725              printf
     000043B7  A$printfld/printf$726              printf
     000043B8  A$printfld/printf$727              printf
     000043B9  A$printfld/printf$728              printf
     000043BD  A$printfld/printf$729              printf
     000043BF  A$printfld/printf$730              printf
     000043C2  A$printfld/printf$735              printf
     000043C2  C$printf.c$222$1_0$34              printf
     000043C5  A$printfld/printf$736              printf
     000043C6  A$printfld/printf$737              printf
     000043C7  A$printfld/printf$738              printf
     000043C8  A$printfld/printf$739              printf
     000043C9  A$printfld/printf$740              printf
     000043CA  A$printfld/printf$744              printf
     000043CE  A$printfld/printf$745              printf
     000043D0  A$printfld/printf$746              printf
     000043D2  A$printfld/printf$751              printf
     000043D2  C$printf.c$223$1_0$34              printf
     000043D2  XFprintf$_out_rev$0$0              printf
     000043D3  A$printfld/printf$761              printf
     000043D3  C$printf.c$227$1_0$42              printf
     000043D3  Fprintf$_ntoa_format$0$0           printf
     000043D4  A$printfld/printf$765              printf
     000043D4  C$printf.c$230$1_0$42              printf
     000043D7  A$printfld/printf$766              printf
     000043D8  A$printfld/printf$767              printf
     000043D9  A$printfld/printf$768              printf
     000043DB  A$printfld/printf$769              printf
     000043DE  A$printfld/printf$773              printf
     000043DE  C$printf.c$231$2_0$43              printf
     000043E2  A$printfld/printf$774              printf
     000043E4  A$printfld/printf$775              printf
     000043E7  A$printfld/printf$776              printf
     000043EA  A$printfld/printf$777              printf
     000043EC  A$printfld/printf$778              printf
     000043EE  A$printfld/printf$779              printf
     000043F0  A$printfld/printf$780              printf
     000043F3  A$printfld/printf$781              printf
     000043F4  A$printfld/printf$782              printf
     000043F6  A$printfld/printf$783              printf
ASxxxx Linker V03.00 + NoICE + sdld,  page 13.
Hexadecimal  [32-Bits]

Area                                    Addr        Size        Decimal Bytes (Attributes)
--------------------------------        ----        ----        ------- ----- ------------
_CODE                               00004000    00003D6A =       15722. bytes (REL,CON)

      Value  Global                              Global Defined In Module
      -----  --------------------------------   ------------------------
     000043F9  A$printfld/printf$784              printf
     000043FA  A$printfld/printf$785              printf
     000043FC  A$printfld/printf$786              printf
     000043FE  A$printfld/printf$787              printf
     00004401  A$printfld/printf$788              printf
     00004402  A$printfld/printf$789              printf
     00004403  A$printfld/printf$790              printf
     00004405  A$printfld/printf$791              printf
     00004407  A$printfld/printf$796              printf
     00004407  C$printf.c$232$3_0$44              printf
     0000440A  A$printfld/printf$797              printf
     0000440B  A$printfld/printf$798              printf
     0000440C  A$printfld/printf$799              printf
     0000440E  A$printfld/printf$800              printf
     0000440F  A$printfld/printf$801              printf
     00004410  A$printfld/printf$802              printf
     00004411  A$printfld/printf$803              printf
     00004413  A$printfld/printf$804              printf
     00004414  A$printfld/printf$809              printf
     00004414  C$printf.c$234$1_0$42              printf
     00004417  A$printfld/printf$810              printf
     00004418  A$printfld/printf$811              printf
     00004419  A$printfld/printf$812              printf
     0000441A  A$printfld/printf$813              printf
     0000441B  A$printfld/printf$815              printf
     0000441E  A$printfld/printf$816              printf
     0000441F  A$printfld/printf$817              printf
     00004420  A$printfld/printf$818              printf
     00004421  A$printfld/printf$819              printf
     00004422  A$printfld/printf$820              printf
     00004423  A$printfld/printf$821              printf
     00004424  A$printfld/printf$822              printf
     00004426  A$printfld/printf$823              printf
     00004427  A$printfld/printf$824              printf
     00004429  A$printfld/printf$825              printf
     0000442A  A$printfld/printf$826              printf
     0000442C  A$printfld/printf$827              printf
     0000442E  A$printfld/printf$831              printf
     0000442E  C$printf.c$235$3_0$45              printf
     00004431  A$printfld/printf$832              printf
     00004432  A$printfld/printf$833              printf
     00004433  A$printfld/printf$834              printf
     00004434  A$printfld/printf$835              printf
     00004435  A$printfld/printf$836              printf
     00004436  A$printfld/printf$837              printf
     00004437  A$printfld/printf$838              printf
     00004438  A$printfld/printf$839              printf
     0000443A  A$printfld/printf$840              printf
     0000443C  A$printfld/printf$845              printf
     0000443C  C$printf.c$237$1_0$42              printf
     0000443F  A$printfld/printf$846              printf
ASxxxx Linker V03.00 + NoICE + sdld,  page 14.
Hexadecimal  [32-Bits]

Area                                    Addr        Size        Decimal Bytes (Attributes)
--------------------------------        ----        ----        ------- ----- ------------
_CODE                               00004000    00003D6A =       15722. bytes (REL,CON)

      Value  Global                              Global Defined In Module
      -----  --------------------------------   ------------------------
     00004440  A$printfld/printf$847              printf
     00004441  A$printfld/printf$848              printf
     00004443  A$printfld/printf$849              printf
     00004447  A$printfld/printf$850              printf
     00004449  A$printfld/printf$851              printf
     0000444C  A$printfld/printf$852              printf
     00004450  A$printfld/printf$854              printf
     00004453  A$printfld/printf$855              printf
     00004454  A$printfld/printf$856              printf
     00004455  A$printfld/printf$857              printf
     00004456  A$printfld/printf$858              printf
     00004457  A$printfld/printf$859              printf
     00004459  A$printfld/printf$860              printf
     0000445C  A$printfld/printf$861              printf
     0000445D  A$printfld/printf$862              printf
     0000445E  A$printfld/printf$863              printf
     0000445F  A$printfld/printf$864              printf
     00004460  A$printfld/printf$865              printf
     00004461  A$printfld/printf$866              printf
     00004462  A$printfld/printf$867              printf
     00004464  A$printfld/printf$868              printf
     00004465  A$printfld/printf$869              printf
     00004467  A$printfld/printf$870              printf
     00004468  A$printfld/printf$871              printf
     0000446A  A$printfld/printf$872              printf
     0000446C  A$printfld/printf$876              printf
     0000446C  C$printf.c$238$3_0$46              printf
     0000446F  A$printfld/printf$877              printf
     00004470  A$printfld/printf$878              printf
     00004471  A$printfld/printf$879              printf
     00004472  A$printfld/printf$880              printf
     00004473  A$printfld/printf$881              printf
     00004474  A$printfld/printf$882              printf
     00004475  A$printfld/printf$883              printf
     00004476  A$printfld/printf$884              printf
     00004478  A$printfld/printf$885              printf
     0000447A  A$printfld/printf$887              printf
     0000447E  A$printfld/printf$888              printf
     00004480  A$printfld/printf$889              printf
     00004483  A$printfld/printf$890              printf
     00004486  A$printfld/printf$895              printf
     00004486  C$printf.c$243$1_0$42              printf
     00004489  A$printfld/printf$896              printf
     0000448A  A$printfld/printf$897              printf
     0000448B  A$printfld/printf$898              printf
     0000448D  A$printfld/printf$899              printf
     00004490  A$printfld/printf$903              printf
     00004490  C$printf.c$246$1_0$42              printf
     00004494  A$printfld/printf$904              printf
     00004496  A$printfld/printf$905              printf
     00004499  A$printfld/printf$906              printf
ASxxxx Linker V03.00 + NoICE + sdld,  page 15.
Hexadecimal  [32-Bits]

Area                                    Addr        Size        Decimal Bytes (Attributes)
--------------------------------        ----        ----        ------- ----- ------------
_CODE                               00004000    00003D6A =       15722. bytes (REL,CON)

      Value  Global                              Global Defined In Module
      -----  --------------------------------   ------------------------
     0000449B  A$printfld/printf$907              printf
     0000449E  A$printfld/printf$908              printf
     000044A0  A$printfld/printf$909              printf
     000044A2  A$printfld/printf$910              printf
     000044A3  A$printfld/printf$912              printf
     000044A4  A$printfld/printf$916              printf
     000044A4  C$printf.c$244$2_0$47              printf
     000044A7  A$printfld/printf$917              printf
     000044A8  A$printfld/printf$918              printf
     000044A9  A$printfld/printf$919              printf
     000044AB  A$printfld/printf$920              printf
     000044AD  A$printfld/printf$921              printf
     000044B1  A$printfld/printf$922              printf
     000044B3  A$printfld/printf$923              printf
     000044B6  A$printfld/printf$924              printf
     000044B9  A$printfld/printf$925              printf
     000044BB  A$printfld/printf$926              printf
     000044BE  A$printfld/printf$927              printf
     000044C2  A$printfld/printf$928              printf
     000044C4  A$printfld/printf$929              printf
     000044C7  A$printfld/printf$930              printf
     000044C9  A$printfld/printf$931              printf
     000044CC  A$printfld/printf$932              printf
     000044CD  A$printfld/printf$933              printf
     000044CE  A$printfld/printf$934              printf
     000044D2  A$printfld/printf$935              printf
     000044D4  A$printfld/printf$936              printf
     000044D7  A$printfld/printf$937              printf
     000044D9  A$printfld/printf$939              printf
     000044DC  A$printfld/printf$940              printf
     000044DD  A$printfld/printf$941              printf
     000044DE  A$printfld/printf$942              printf
     000044E2  A$printfld/printf$943              printf
     000044E4  A$printfld/printf$944              printf
     000044E7  A$printfld/printf$945              printf
     000044E9  A$printfld/printf$946              printf
     000044EC  A$printfld/printf$947              printf
     000044ED  A$printfld/printf$948              printf
     000044EE  A$printfld/printf$949              printf
     000044F2  A$printfld/printf$950              printf
     000044F4  A$printfld/printf$951              printf
     000044F7  A$printfld/printf$952              printf
     000044F9  A$printfld/printf$957              printf
     000044F9  C$printf.c$245$3_0$48              printf
     000044FC  A$printfld/printf$958              printf
     000044FD  A$printfld/printf$959              printf
     000044FE  A$printfld/printf$960              printf
     00004500  A$printfld/printf$961              printf
     00004501  A$printfld/printf$962              printf
     00004502  A$printfld/printf$963              printf
     00004503  A$printfld/printf$964              printf
ASxxxx Linker V03.00 + NoICE + sdld,  page 16.
Hexadecimal  [32-Bits]

Area                                    Addr        Size        Decimal Bytes (Attributes)
--------------------------------        ----        ----        ------- ----- ------------
_CODE                               00004000    00003D6A =       15722. bytes (REL,CON)

      Value  Global                              Global Defined In Module
      -----  --------------------------------   ------------------------
     00004505  A$printfld/printf$965              printf
     00004506  A$printfld/printf$969              printf
     00004506  C$printf.c$246$3_0$48              printf
     00004509  A$printfld/printf$970              printf
     0000450A  A$printfld/printf$971              printf
     0000450B  A$printfld/printf$972              printf
     0000450C  A$printfld/printf$973              printf
     0000450D  A$printfld/printf$974              printf
     0000450F  A$printfld/printf$975              printf
     00004510  A$printfld/printf$976              printf
     00004511  A$printfld/printf$977              printf
     00004513  A$printfld/printf$981              printf
     00004513  C$printf.c$247$4_0$49              printf
     00004516  A$printfld/printf$982              printf
     00004517  A$printfld/printf$983              printf
     00004518  A$printfld/printf$984              printf
     0000451A  A$printfld/printf$985              printf
     0000451B  A$printfld/printf$986              printf
     0000451C  A$printfld/printf$987              printf
     0000451D  A$printfld/printf$988              printf
     0000451F  A$printfld/printf$989              printf
     00004520  A$printfld/printf$994              printf
     00004520  C$printf.c$250$1_0$42              printf
     00004524  A$printfld/printf$995              printf
     00004526  A$printfld/printf$996              printf
     00004529  A$printfld/printf$997              printf
     0000452B  A$printfld/printf$998              printf
     0000452E  A$printfld/printf$999              printf
     00004530  A$printfld/printf$1000             printf
     00004532  A$printfld/printf$1001             printf
     00004533  A$printfld/printf$1002             printf
     00004534  A$printfld/printf$1003             printf
     00004535  A$printfld/printf$1004             printf
     00004536  A$printfld/printf$1005             printf
     00004538  A$printfld/printf$1006             printf
     0000453B  A$printfld/printf$1007             printf
     0000453C  A$printfld/printf$1008             printf
     0000453D  A$printfld/printf$1009             printf
     0000453F  A$printfld/printf$1010             printf
     00004541  A$printfld/printf$1011             printf
     00004542  A$printfld/printf$1012             printf
     00004543  A$printfld/printf$1013             printf
     00004545  A$printfld/printf$1017             printf
     00004545  C$printf.c$251$3_0$50              printf
     00004549  A$printfld/printf$1018             printf
     0000454B  A$printfld/printf$1019             printf
     0000454E  A$printfld/printf$1020             printf
     00004551  A$printfld/printf$1021             printf
     00004554  A$printfld/printf$1022             printf
     00004555  A$printfld/printf$1023             printf
     00004558  A$printfld/printf$1024             printf
ASxxxx Linker V03.00 + NoICE + sdld,  page 17.
Hexadecimal  [32-Bits]

Area                                    Addr        Size        Decimal Bytes (Attributes)
--------------------------------        ----        ----        ------- ----- ------------
_CODE                               00004000    00003D6A =       15722. bytes (REL,CON)

      Value  Global                              Global Defined In Module
      -----  --------------------------------   ------------------------
     0000455B  A$printfld/printf$1025             printf
     0000455D  A$printfld/printf$1026             printf
     0000455F  A$printfld/printf$1027             printf
     00004562  A$printfld/printf$1028             printf
     00004565  A$printfld/printf$1029             printf
     00004566  A$printfld/printf$1030             printf
     00004568  A$printfld/printf$1031             printf
     0000456A  A$printfld/printf$1036             printf
     0000456A  C$printf.c$253$2_0$47              printf
     0000456B  A$printfld/printf$1037             printf
     0000456C  A$printfld/printf$1038             printf
     0000456E  A$printfld/printf$1039             printf
     00004571  A$printfld/printf$1040             printf
     00004572  A$printfld/printf$1041             printf
     00004573  A$printfld/printf$1042             printf
     00004575  A$printfld/printf$1043             printf
     00004577  A$printfld/printf$1044             printf
     00004578  A$printfld/printf$1045             printf
     00004579  A$printfld/printf$1046             printf
     0000457B  A$printfld/printf$1050             printf
     0000457B  C$printf.c$254$3_0$51              printf
     0000457F  A$printfld/printf$1051             printf
     00004581  A$printfld/printf$1052             printf
     00004584  A$printfld/printf$1053             printf
     00004587  A$printfld/printf$1054             printf
     0000458A  A$printfld/printf$1055             printf
     0000458B  A$printfld/printf$1056             printf
     0000458E  A$printfld/printf$1057             printf
     00004591  A$printfld/printf$1058             printf
     00004593  A$printfld/printf$1059             printf
     00004595  A$printfld/printf$1060             printf
     00004598  A$printfld/printf$1061             printf
     0000459B  A$printfld/printf$1062             printf
     0000459C  A$printfld/printf$1063             printf
     0000459E  A$printfld/printf$1064             printf
     000045A0  A$printfld/printf$1069             printf
     000045A0  C$printf.c$256$2_0$47              printf
     000045A4  A$printfld/printf$1070             printf
     000045A6  A$printfld/printf$1071             printf
     000045A9  A$printfld/printf$1072             printf
     000045AB  A$printfld/printf$1073             printf
     000045AE  A$printfld/printf$1074             printf
     000045B0  A$printfld/printf$1075             printf
     000045B1  A$printfld/printf$1076             printf
     000045B2  A$printfld/printf$1077             printf
     000045B4  A$printfld/printf$1081             printf
     000045B4  C$printf.c$257$3_0$52              printf
     000045B6  A$printfld/printf$1082             printf
     000045B8  A$printfld/printf$1083             printf
     000045BA  A$printfld/printf$1084             printf
     000045BD  A$printfld/printf$1085             printf
ASxxxx Linker V03.00 + NoICE + sdld,  page 18.
Hexadecimal  [32-Bits]

Area                                    Addr        Size        Decimal Bytes (Attributes)
--------------------------------        ----        ----        ------- ----- ------------
_CODE                               00004000    00003D6A =       15722. bytes (REL,CON)

      Value  Global                              Global Defined In Module
      -----  --------------------------------   ------------------------
     000045C0  A$printfld/printf$1086             printf
     000045C3  A$printfld/printf$1087             printf
     000045C4  A$printfld/printf$1088             printf
     000045C7  A$printfld/printf$1089             printf
     000045CA  A$printfld/printf$1090             printf
     000045CC  A$printfld/printf$1091             printf
     000045CE  A$printfld/printf$1092             printf
     000045D1  A$printfld/printf$1093             printf
     000045D4  A$printfld/printf$1094             printf
     000045D5  A$printfld/printf$1095             printf
     000045D7  A$printfld/printf$1100             printf
     000045D7  C$printf.c$259$2_0$47              printf
     000045DB  A$printfld/printf$1101             printf
     000045DD  A$printfld/printf$1102             printf
     000045E0  A$printfld/printf$1103             printf
     000045E2  A$printfld/printf$1104             printf
     000045E5  A$printfld/printf$1105             printf
     000045E7  A$printfld/printf$1106             printf
     000045E9  A$printfld/printf$1110             printf
     000045E9  C$printf.c$260$3_0$53              printf
     000045EC  A$printfld/printf$1111             printf
     000045EF  A$printfld/printf$1112             printf
     000045F0  A$printfld/printf$1113             printf
     000045F3  A$printfld/printf$1114             printf
     000045F4  A$printfld/printf$1115             printf
     000045F6  A$printfld/printf$1116             printf
     000045F7  A$printfld/printf$1117             printf
     000045F8  A$printfld/printf$1118             printf
     000045FA  A$printfld/printf$1119             printf
     000045FB  A$printfld/printf$1120             printf
     000045FC  A$printfld/printf$1121             printf
     000045FD  A$printfld/printf$1122             printf
     00004600  A$printfld/printf$1123             printf
     00004601  A$printfld/printf$1124             printf
     00004602  A$printfld/printf$1125             printf
     00004603  A$printfld/printf$1126             printf
     00004604  A$printfld/printf$1127             printf
     00004605  A$printfld/printf$1128             printf
     00004606  A$printfld/printf$1129             printf
     00004607  A$printfld/printf$1130             printf
     00004608  A$printfld/printf$1131             printf
     0000460A  A$printfld/printf$1136             printf
     0000460A  C$printf.c$264$1_0$42              printf
     0000460E  A$printfld/printf$1137             printf
     00004610  A$printfld/printf$1138             printf
     00004613  A$printfld/printf$1139             printf
     00004615  A$printfld/printf$1140             printf
     00004618  A$printfld/printf$1141             printf
     0000461A  A$printfld/printf$1142             printf
     0000461D  A$printfld/printf$1146             printf
     0000461D  C$printf.c$265$2_0$54              printf
ASxxxx Linker V03.00 + NoICE + sdld,  page 19.
Hexadecimal  [32-Bits]

Area                                    Addr        Size        Decimal Bytes (Attributes)
--------------------------------        ----        ----        ------- ----- ------------
_CODE                               00004000    00003D6A =       15722. bytes (REL,CON)

      Value  Global                              Global Defined In Module
      -----  --------------------------------   ------------------------
     0000461F  A$printfld/printf$1147             printf
     00004621  A$printfld/printf$1148             printf
     00004625  A$printfld/printf$1149             printf
     00004627  A$printfld/printf$1153             printf
     00004627  C$printf.c$266$3_0$55              printf
     00004629  A$printfld/printf$1154             printf
     0000462B  A$printfld/printf$1155             printf
     0000462E  A$printfld/printf$1156             printf
     00004631  A$printfld/printf$1157             printf
     00004632  A$printfld/printf$1158             printf
     00004635  A$printfld/printf$1159             printf
     00004636  A$printfld/printf$1160             printf
     00004638  A$printfld/printf$1161             printf
     00004639  A$printfld/printf$1162             printf
     0000463A  A$printfld/printf$1163             printf
     0000463C  A$printfld/printf$1164             printf
     0000463D  A$printfld/printf$1165             printf
     0000463E  A$printfld/printf$1166             printf
     0000463F  A$printfld/printf$1167             printf
     00004642  A$printfld/printf$1168             printf
     00004643  A$printfld/printf$1169             printf
     00004644  A$printfld/printf$1170             printf
     00004645  A$printfld/printf$1171             printf
     00004646  A$printfld/printf$1172             printf
     00004647  A$printfld/printf$1173             printf
     00004648  A$printfld/printf$1174             printf
     00004649  A$printfld/printf$1175             printf
     0000464A  A$printfld/printf$1176             printf
     0000464C  A$printfld/printf$1177             printf
     0000464E  A$printfld/printf$1182             printf
     0000464E  C$printf.c$268$2_0$54              printf
     00004651  A$printfld/printf$1183             printf
     00004652  A$printfld/printf$1184             printf
     00004653  A$printfld/printf$1185             printf
     00004655  A$printfld/printf$1186             printf
     00004657  A$printfld/printf$1190             printf
     00004657  C$printf.c$269$3_0$56              printf
     0000465A  A$printfld/printf$1191             printf
     0000465B  A$printfld/printf$1192             printf
     0000465C  A$printfld/printf$1193             printf
     0000465D  A$printfld/printf$1194             printf
     0000465E  A$printfld/printf$1195             printf
     0000465F  A$printfld/printf$1196             printf
     00004662  A$printfld/printf$1197             printf
     00004663  A$printfld/printf$1198             printf
     00004665  A$printfld/printf$1199             printf
     00004666  A$printfld/printf$1200             printf
     00004667  A$printfld/printf$1201             printf
     00004669  A$printfld/printf$1202             printf
     0000466A  A$printfld/printf$1203             printf
     0000466B  A$printfld/printf$1204             printf
ASxxxx Linker V03.00 + NoICE + sdld,  page 20.
Hexadecimal  [32-Bits]

Area                                    Addr        Size        Decimal Bytes (Attributes)
--------------------------------        ----        ----        ------- ----- ------------
_CODE                               00004000    00003D6A =       15722. bytes (REL,CON)

      Value  Global                              Global Defined In Module
      -----  --------------------------------   ------------------------
     0000466C  A$printfld/printf$1205             printf
     0000466F  A$printfld/printf$1206             printf
     00004670  A$printfld/printf$1207             printf
     00004671  A$printfld/printf$1208             printf
     00004672  A$printfld/printf$1209             printf
     00004673  A$printfld/printf$1210             printf
     00004674  A$printfld/printf$1211             printf
     00004675  A$printfld/printf$1212             printf
     00004676  A$printfld/printf$1213             printf
     00004677  A$printfld/printf$1214             printf
     00004679  A$printfld/printf$1215             printf
     0000467B  A$printfld/printf$1220             printf
     0000467B  C$printf.c$271$2_0$54              printf
     0000467E  A$printfld/printf$1221             printf
     0000467F  A$printfld/printf$1222             printf
     00004680  A$printfld/printf$1223             printf
     00004682  A$printfld/printf$1224             printf
     00004684  A$printfld/printf$1228             printf
     00004684  C$printf.c$272$3_0$57              printf
     00004687  A$printfld/printf$1229             printf
     00004688  A$printfld/printf$1230             printf
     00004689  A$printfld/printf$1231             printf
     0000468A  A$printfld/printf$1232             printf
     0000468B  A$printfld/printf$1233             printf
     0000468C  A$printfld/printf$1234             printf
     0000468F  A$printfld/printf$1235             printf
     00004690  A$printfld/printf$1236             printf
     00004692  A$printfld/printf$1237             printf
     00004693  A$printfld/printf$1238             printf
     00004694  A$printfld/printf$1239             printf
     00004696  A$printfld/printf$1240             printf
     00004697  A$printfld/printf$1241             printf
     00004698  A$printfld/printf$1242             printf
     00004699  A$printfld/printf$1243             printf
     0000469C  A$printfld/printf$1244             printf
     0000469D  A$printfld/printf$1245             printf
     0000469E  A$printfld/printf$1246             printf
     0000469F  A$printfld/printf$1247             printf
     000046A0  A$printfld/printf$1248             printf
     000046A1  A$printfld/printf$1249             printf
     000046A2  A$printfld/printf$1250             printf
     000046A3  A$printfld/printf$1251             printf
     000046A4  A$printfld/printf$1252             printf
     000046A6  A$printfld/printf$1257             printf
     000046A6  C$printf.c$276$1_0$42              printf
     000046AA  A$printfld/printf$1258             printf
     000046AC  A$printfld/printf$1259             printf
     000046AF  A$printfld/printf$1260             printf
     000046B2  A$printfld/printf$1261             printf
     000046B3  A$printfld/printf$1262             printf
     000046B5  A$printfld/printf$1263             printf
ASxxxx Linker V03.00 + NoICE + sdld,  page 21.
Hexadecimal  [32-Bits]

Area                                    Addr        Size        Decimal Bytes (Attributes)
--------------------------------        ----        ----        ------- ----- ------------
_CODE                               00004000    00003D6A =       15722. bytes (REL,CON)

      Value  Global                              Global Defined In Module
      -----  --------------------------------   ------------------------
     000046B7  A$printfld/printf$1264             printf
     000046BA  A$printfld/printf$1265             printf
     000046BD  A$printfld/printf$1266             printf
     000046BE  A$printfld/printf$1267             printf
     000046C2  A$printfld/printf$1268             printf
     000046C4  A$printfld/printf$1269             printf
     000046C7  A$printfld/printf$1270             printf
     000046CA  A$printfld/printf$1271             printf
     000046CB  A$printfld/printf$1272             printf
     000046CD  A$printfld/printf$1273             printf
     000046CF  A$printfld/printf$1274             printf
     000046D2  A$printfld/printf$1275             printf
     000046D5  A$printfld/printf$1276             printf
     000046D6  A$printfld/printf$1277             printf
     000046D8  A$printfld/printf$1278             printf
     000046DA  A$printfld/printf$1279             printf
     000046DD  A$printfld/printf$1280             printf
     000046E0  A$printfld/printf$1281             printf
     000046E1  A$printfld/printf$1282             printf
     000046E3  A$printfld/printf$1283             printf
     000046E5  A$printfld/printf$1284             printf
     000046E8  A$printfld/printf$1285             printf
     000046EB  A$printfld/printf$1286             printf
     000046EC  A$printfld/printf$1287             printf
     000046EE  A$printfld/printf$1288             printf
     000046F0  A$printfld/printf$1289             printf
     000046F3  A$printfld/printf$1290             printf
     000046F6  A$printfld/printf$1291             printf
     000046F7  A$printfld/printf$1292             printf
     000046F9  A$printfld/printf$1293             printf
     000046FB  A$printfld/printf$1294             printf
     000046FE  A$printfld/printf$1295             printf
     00004701  A$printfld/printf$1296             printf
     00004702  A$printfld/printf$1297             printf
     00004705  A$printfld/printf$1298             printf
     00004709  A$printfld/printf$1299             printf
     0000470B  A$printfld/printf$1300             printf
     0000470D  A$printfld/printf$1304             printf
     0000470E  A$printfld/printf$1309             printf
     0000470E  C$printf.c$277$1_0$42              printf
     0000470E  XFprintf$_ntoa_format$0$0          printf
     0000470F  A$printfld/printf$1319             printf
     0000470F  C$printf.c$281$1_0$59              printf
     0000470F  Fprintf$_ntoa_long$0$0             printf
     00004712  A$printfld/printf$1320             printf
     00004713  A$printfld/printf$1321             printf
     00004714  A$printfld/printf$1325             printf
     00004714  C$printf.c$284$2_0$59              printf
     00004717  A$printfld/printf$1329             printf
     00004717  C$printf.c$287$1_0$59              printf
     0000471B  A$printfld/printf$1330             printf
ASxxxx Linker V03.00 + NoICE + sdld,  page 22.
Hexadecimal  [32-Bits]

Area                                    Addr        Size        Decimal Bytes (Attributes)
--------------------------------        ----        ----        ------- ----- ------------
_CODE                               00004000    00003D6A =       15722. bytes (REL,CON)

      Value  Global                              Global Defined In Module
      -----  --------------------------------   ------------------------
     0000471D  A$printfld/printf$1331             printf
     00004720  A$printfld/printf$1332             printf
     00004723  A$printfld/printf$1333             printf
     00004726  A$printfld/printf$1334             printf
     00004729  A$printfld/printf$1335             printf
     0000472B  A$printfld/printf$1339             printf
     0000472B  C$printf.c$288$2_0$60              printf
     0000472F  A$printfld/printf$1340             printf
     00004731  A$printfld/printf$1341             printf
     00004734  A$printfld/printf$1342             printf
     00004736  A$printfld/printf$1343             printf
     00004739  A$printfld/printf$1344             printf
     0000473C  A$printfld/printf$1345             printf
     0000473F  A$printfld/printf$1350             printf
     0000473F  C$printf.c$292$1_0$59              printf
     00004742  A$printfld/printf$1351             printf
     00004743  A$printfld/printf$1352             printf
     00004744  A$printfld/printf$1353             printf
     00004746  A$printfld/printf$1354             printf
     00004748  A$printfld/printf$1355             printf
     0000474C  A$printfld/printf$1356             printf
     0000474E  A$printfld/printf$1357             printf
     00004751  A$printfld/printf$1358             printf
     00004754  A$printfld/printf$1359             printf
     00004757  A$printfld/printf$1360             printf
     0000475A  A$printfld/printf$1361             printf
     0000475D  A$printfld/printf$1366             printf
     0000475D  C$printf.c$293$1_0$59              printf
     00004760  A$printfld/printf$1367             printf
     00004761  A$printfld/printf$1368             printf
     00004762  A$printfld/printf$1369             printf
     00004764  A$printfld/printf$1370             printf
     00004768  A$printfld/printf$1371             printf
     0000476A  A$printfld/printf$1372             printf
     0000476D  A$printfld/printf$1373             printf
     00004771  A$printfld/printf$1374             printf
     00004774  A$printfld/printf$1375             printf
     00004775  A$printfld/printf$1376             printf
     00004777  A$printfld/printf$1377             printf
     00004779  A$printfld/printf$1378             printf
     0000477C  A$printfld/printf$1379             printf
     0000477F  A$printfld/printf$1380             printf
     00004782  A$printfld/printf$1385             printf
     00004782  C$printf.c$294$1_0$59              printf
     00004783  A$printfld/printf$1386             printf
     00004787  A$printfld/printf$1387             printf
     00004789  A$printfld/printf$1388             printf
     0000478C  A$printfld/printf$1389             printf
     0000478F  A$printfld/printf$1390             printf
     00004790  A$printfld/printf$1391             printf
     00004793  A$printfld/printf$1392             printf
ASxxxx Linker V03.00 + NoICE + sdld,  page 23.
Hexadecimal  [32-Bits]

Area                                    Addr        Size        Decimal Bytes (Attributes)
--------------------------------        ----        ----        ------- ----- ------------
_CODE                               00004000    00003D6A =       15722. bytes (REL,CON)

      Value  Global                              Global Defined In Module
      -----  --------------------------------   ------------------------
     00004796  A$printfld/printf$1393             printf
     00004797  A$printfld/printf$1394             printf
     0000479B  A$printfld/printf$1395             printf
     0000479D  A$printfld/printf$1396             printf
     000047A0  A$printfld/printf$1397             printf
     000047A3  A$printfld/printf$1398             printf
     000047A4  A$printfld/printf$1399             printf
     000047A7  A$printfld/printf$1400             printf
     000047AA  A$printfld/printf$1401             printf
     000047AB  A$printfld/printf$1402             printf
     000047AE  A$printfld/printf$1403             printf
     000047AF  A$printfld/printf$1404             printf
     000047B0  A$printfld/printf$1405             printf
     000047B1  A$printfld/printf$1406             printf
     000047B2  A$printfld/printf$1407             printf
     000047B3  A$printfld/printf$1408             printf
     000047B4  A$printfld/printf$1412             printf
     000047B4  C$printf.c$295$3_0$62              printf
     000047B7  A$printfld/printf$1413             printf
     000047B8  A$printfld/printf$1414             printf
     000047BC  A$printfld/printf$1415             printf
     000047BE  A$printfld/printf$1416             printf
     000047C1  A$printfld/printf$1417             printf
     000047C2  A$printfld/printf$1418             printf
     000047C3  A$printfld/printf$1419             printf
     000047C6  A$printfld/printf$1420             printf
     000047C7  A$printfld/printf$1421             printf
     000047C8  A$printfld/printf$1422             printf
     000047C9  A$printfld/printf$1423             printf
     000047CA  A$printfld/printf$1424             printf
     000047CB  A$printfld/printf$1425             printf
     000047CD  A$printfld/printf$1426             printf
     000047CF  A$printfld/printf$1427             printf
     000047D1  A$printfld/printf$1428             printf
     000047D2  A$printfld/printf$1429             printf
     000047D4  A$printfld/printf$1430             printf
     000047D6  A$printfld/printf$1432             printf
     000047D9  A$printfld/printf$1433             printf
     000047DA  A$printfld/printf$1434             printf
     000047DB  A$printfld/printf$1435             printf
     000047DC  A$printfld/printf$1436             printf
     000047DD  A$printfld/printf$1437             printf
     000047DF  A$printfld/printf$1438             printf
     000047E2  A$printfld/printf$1439             printf
     000047E4  A$printfld/printf$1441             printf
     000047E7  A$printfld/printf$1443             printf
     000047E8  A$printfld/printf$1444             printf
     000047E9  A$printfld/printf$1445             printf
     000047EB  A$printfld/printf$1447             printf
     000047EF  A$printfld/printf$1448             printf
     000047F1  A$printfld/printf$1449             printf
ASxxxx Linker V03.00 + NoICE + sdld,  page 24.
Hexadecimal  [32-Bits]

Area                                    Addr        Size        Decimal Bytes (Attributes)
--------------------------------        ----        ----        ------- ----- ------------
_CODE                               00004000    00003D6A =       15722. bytes (REL,CON)

      Value  Global                              Global Defined In Module
      -----  --------------------------------   ------------------------
     000047F4  A$printfld/printf$1450             printf
     000047F7  A$printfld/printf$1451             printf
     000047F8  A$printfld/printf$1455             printf
     000047F8  C$printf.c$296$1_0$59              printf
     000047F9  A$printfld/printf$1456             printf
     000047FD  A$printfld/printf$1457             printf
     000047FF  A$printfld/printf$1458             printf
     00004802  A$printfld/printf$1459             printf
     00004805  A$printfld/printf$1460             printf
     00004806  A$printfld/printf$1461             printf
     00004809  A$printfld/printf$1462             printf
     0000480C  A$printfld/printf$1463             printf
     0000480D  A$printfld/printf$1464             printf
     00004811  A$printfld/printf$1465             printf
     00004813  A$printfld/printf$1466             printf
     00004816  A$printfld/printf$1467             printf
     00004819  A$printfld/printf$1468             printf
     0000481A  A$printfld/printf$1469             printf
     0000481D  A$printfld/printf$1470             printf
     00004820  A$printfld/printf$1471             printf
     00004821  A$printfld/printf$1472             printf
     00004824  A$printfld/printf$1473             printf
     00004825  A$printfld/printf$1474             printf
     00004826  A$printfld/printf$1475             printf
     00004827  A$printfld/printf$1476             printf
     00004828  A$printfld/printf$1477             printf
     00004829  A$printfld/printf$1478             printf
     0000482D  A$printfld/printf$1479             printf
     0000482F  A$printfld/printf$1480             printf
     00004832  A$printfld/printf$1481             printf
     00004835  A$printfld/printf$1482             printf
     00004838  A$printfld/printf$1483             printf
     0000483B  A$printfld/printf$1487             printf
     0000483B  C$printf.c$297$2_0$61              printf
     0000483E  A$printfld/printf$1488             printf
     00004841  A$printfld/printf$1489             printf
     00004844  A$printfld/printf$1490             printf
     00004847  A$printfld/printf$1491             printf
     00004849  A$printfld/printf$1492             printf
     0000484A  A$printfld/printf$1493             printf
     0000484C  A$printfld/printf$1494             printf
     0000484D  A$printfld/printf$1495             printf
     0000484F  A$printfld/printf$1496             printf
     00004852  A$printfld/printf$1502             printf
     00004852  C$printf.c$300$1_0$59              printf
     00004855  A$printfld/printf$1503             printf
     00004856  A$printfld/printf$1504             printf
     00004857  A$printfld/printf$1505             printf
     00004858  A$printfld/printf$1506             printf
     00004859  A$printfld/printf$1507             printf
     0000485C  A$printfld/printf$1508             printf
ASxxxx Linker V03.00 + NoICE + sdld,  page 25.
Hexadecimal  [32-Bits]

Area                                    Addr        Size        Decimal Bytes (Attributes)
--------------------------------        ----        ----        ------- ----- ------------
_CODE                               00004000    00003D6A =       15722. bytes (REL,CON)

      Value  Global                              Global Defined In Module
      -----  --------------------------------   ------------------------
     0000485D  A$printfld/printf$1509             printf
     00004861  A$printfld/printf$1510             printf
     00004863  A$printfld/printf$1511             printf
     00004866  A$printfld/printf$1512             printf
     00004869  A$printfld/printf$1513             printf
     0000486D  A$printfld/printf$1514             printf
     0000486F  A$printfld/printf$1515             printf
     00004872  A$printfld/printf$1516             printf
     00004875  A$printfld/printf$1517             printf
     00004876  A$printfld/printf$1518             printf
     00004878  A$printfld/printf$1519             printf
     0000487A  A$printfld/printf$1520             printf
     0000487D  A$printfld/printf$1521             printf
     00004880  A$printfld/printf$1522             printf
     00004881  A$printfld/printf$1523             printf
     00004883  A$printfld/printf$1524             printf
     00004885  A$printfld/printf$1525             printf
     00004888  A$printfld/printf$1526             printf
     0000488B  A$printfld/printf$1527             printf
     0000488C  A$printfld/printf$1528             printf
     0000488D  A$printfld/printf$1529             printf
     00004890  A$printfld/printf$1530             printf
     00004891  A$printfld/printf$1531             printf
     00004892  A$printfld/printf$1532             printf
     00004893  A$printfld/printf$1533             printf
     00004894  A$printfld/printf$1534             printf
     00004895  A$printfld/printf$1535             printf
     00004898  A$printfld/printf$1536             printf
     00004899  A$printfld/printf$1537             printf
     0000489A  A$printfld/printf$1538             printf
     0000489B  A$printfld/printf$1539             printf
     0000489C  A$printfld/printf$1540             printf
     0000489D  A$printfld/printf$1541             printf
     000048A1  A$printfld/printf$1542             printf
     000048A3  A$printfld/printf$1543             printf
     000048A6  A$printfld/printf$1544             printf
     000048A9  A$printfld/printf$1545             printf
     000048AA  A$printfld/printf$1546             printf
     000048AC  A$printfld/printf$1547             printf
     000048AE  A$printfld/printf$1548             printf
     000048B1  A$printfld/printf$1549             printf
     000048B4  A$printfld/printf$1550             printf
     000048B5  A$printfld/printf$1551             printf
     000048B7  A$printfld/printf$1552             printf
     000048B9  A$printfld/printf$1553             printf
     000048BC  A$printfld/printf$1554             printf
     000048BF  A$printfld/printf$1555             printf
     000048C0  A$printfld/printf$1556             printf
     000048C2  A$printfld/printf$1557             printf
     000048C4  A$printfld/printf$1558             printf
     000048C7  A$printfld/printf$1559             printf
ASxxxx Linker V03.00 + NoICE + sdld,  page 26.
Hexadecimal  [32-Bits]

Area                                    Addr        Size        Decimal Bytes (Attributes)
--------------------------------        ----        ----        ------- ----- ------------
_CODE                               00004000    00003D6A =       15722. bytes (REL,CON)

      Value  Global                              Global Defined In Module
      -----  --------------------------------   ------------------------
     000048CA  A$printfld/printf$1560             printf
     000048CB  A$printfld/printf$1561             printf
     000048CE  A$printfld/printf$1562             printf
     000048D2  A$printfld/printf$1563             printf
     000048D4  A$printfld/printf$1564             printf
     000048D6  A$printfld/printf$1568             printf
     000048DA  A$printfld/printf$1569             printf
     000048DC  A$printfld/printf$1570             printf
     000048DE  A$printfld/printf$1575             printf
     000048DE  C$printf.c$301$1_0$59              printf
     000048DE  XFprintf$_ntoa_long$0$0            printf
     000048DF  A$printfld/printf$1585             printf
     000048DF  C$printf.c$577$1_0$64              printf
     000048DF  Fprintf$_vsnprintf$0$0             printf
     000048E2  A$printfld/printf$1586             printf
     000048E3  A$printfld/printf$1587             printf
     000048E4  A$printfld/printf$1591             printf
     000048E4  C$printf.c$580$2_0$64              printf
     000048E5  A$printfld/printf$1592             printf
     000048E9  A$printfld/printf$1593             printf
     000048EB  A$printfld/printf$1594             printf
     000048EE  A$printfld/printf$1595             printf
     000048F1  A$printfld/printf$1599             printf
     000048F1  C$printf.c$582$1_0$64              printf
     000048F5  A$printfld/printf$1600             printf
     000048F7  A$printfld/printf$1601             printf
     000048FA  A$printfld/printf$1602             printf
     000048FD  A$printfld/printf$1603             printf
     000048FF  A$printfld/printf$1607             printf
     000048FF  C$printf.c$584$2_0$65              printf
     00004901  A$printfld/printf$1608             printf
     00004903  A$printfld/printf$1609             printf
     00004907  A$printfld/printf$1610             printf
     0000490B  A$printfld/printf$1615             printf
     0000490E  A$printfld/printf$1616             printf
     0000490F  A$printfld/printf$1617             printf
     00004910  A$printfld/printf$1618             printf
     00004914  A$printfld/printf$1619             printf
     00004916  A$printfld/printf$1620             printf
     00004919  A$printfld/printf$1621             printf
     0000491C  A$printfld/printf$1622             printf
     0000491D  A$printfld/printf$1623             printf
     0000491E  A$printfld/printf$1624             printf
     00004922  A$printfld/printf$1625             printf
     00004924  A$printfld/printf$1626             printf
     00004927  A$printfld/printf$1627             printf
     0000492A  A$printfld/printf$1628             printf
     0000492D  A$printfld/printf$1629             printf
     0000492E  A$printfld/printf$1630             printf
     00004932  A$printfld/printf$1631             printf
     00004934  A$printfld/printf$1632             printf
ASxxxx Linker V03.00 + NoICE + sdld,  page 27.
Hexadecimal  [32-Bits]

Area                                    Addr        Size        Decimal Bytes (Attributes)
--------------------------------        ----        ----        ------- ----- ------------
_CODE                               00004000    00003D6A =       15722. bytes (REL,CON)

      Value  Global                              Global Defined In Module
      -----  --------------------------------   ------------------------
     00004937  A$printfld/printf$1633             printf
     0000493A  A$printfld/printf$1634             printf
     0000493B  A$printfld/printf$1635             printf
     0000493E  A$printfld/printf$1639             printf
     0000493E  C$printf.c$590$2_0$66              printf
     00004941  A$printfld/printf$1640             printf
     00004943  A$printfld/printf$1641             printf
     00004945  A$printfld/printf$1645             printf
     00004945  C$printf.c$592$3_0$67              printf
     00004947  A$printfld/printf$1646             printf
     00004949  A$printfld/printf$1647             printf
     0000494B  A$printfld/printf$1648             printf
     0000494E  A$printfld/printf$1649             printf
     00004951  A$printfld/printf$1650             printf
     00004954  A$printfld/printf$1651             printf
     00004956  A$printfld/printf$1652             printf
     00004959  A$printfld/printf$1654             printf
     0000495D  A$printfld/printf$1655             printf
     0000495F  A$printfld/printf$1656             printf
     00004962  A$printfld/printf$1657             printf
     00004965  A$printfld/printf$1658             printf
     00004967  A$printfld/printf$1659             printf
     00004969  A$printfld/printf$1660             printf
     0000496C  A$printfld/printf$1661             printf
     0000496F  A$printfld/printf$1662             printf
     00004970  A$printfld/printf$1663             printf
     00004971  A$printfld/printf$1664             printf
     00004972  A$printfld/printf$1665             printf
     00004976  A$printfld/printf$1666             printf
     00004978  A$printfld/printf$1667             printf
     0000497B  A$printfld/printf$1668             printf
     0000497C  A$printfld/printf$1669             printf
     0000497D  A$printfld/printf$1670             printf
     0000497F  A$printfld/printf$1671             printf
     00004981  A$printfld/printf$1672             printf
     00004983  A$printfld/printf$1673             printf
     00004986  A$printfld/printf$1674             printf
     00004989  A$printfld/printf$1675             printf
     0000498C  A$printfld/printf$1676             printf
     0000498F  A$printfld/printf$1677             printf
     00004990  A$printfld/printf$1678             printf
     00004991  A$printfld/printf$1682             printf
     00004991  C$printf.c$593$3_0$67              printf
     00004995  A$printfld/printf$1683             printf
     00004997  A$printfld/printf$1684             printf
     0000499A  A$printfld/printf$1685             printf
     0000499D  A$printfld/printf$1686             printf
     000049A0  A$printfld/printf$1690             printf
     000049A0  C$printf.c$594$3_0$67              printf
     000049A3  A$printfld/printf$1695             printf
     000049A3  C$printf.c$598$3_0$68              printf
ASxxxx Linker V03.00 + NoICE + sdld,  page 28.
Hexadecimal  [32-Bits]

Area                                    Addr        Size        Decimal Bytes (Attributes)
--------------------------------        ----        ----        ------- ----- ------------
_CODE                               00004000    00003D6A =       15722. bytes (REL,CON)

      Value  Global                              Global Defined In Module
      -----  --------------------------------   ------------------------
     000049A6  A$printfld/printf$1696             printf
     000049A7  A$printfld/printf$1697             printf
     000049AB  A$printfld/printf$1698             printf
     000049AD  A$printfld/printf$1699             printf
     000049B0  A$printfld/printf$1700             printf
     000049B2  A$printfld/printf$1701             printf
     000049B3  A$printfld/printf$1702             printf
     000049B6  A$printfld/printf$1703             printf
     000049B8  A$printfld/printf$1704             printf
     000049B9  A$printfld/printf$1705             printf
     000049BA  A$printfld/printf$1709             printf
     000049BA  C$printf.c$602$2_0$66              printf
     000049BB  A$printfld/printf$1710             printf
     000049BF  A$printfld/printf$1711             printf
     000049C1  A$printfld/printf$1712             printf
     000049C4  A$printfld/printf$1713             printf
     000049C7  A$printfld/printf$1721             printf
     000049C7  C$printf.c$603$2_0$66              printf
     000049C7  C$printf.c$604$3_0$69              printf
     000049CA  A$printfld/printf$1722             printf
     000049CB  A$printfld/printf$1723             printf
     000049CC  A$printfld/printf$1724             printf
     000049D0  A$printfld/printf$1725             printf
     000049D2  A$printfld/printf$1726             printf
     000049D5  A$printfld/printf$1727             printf
     000049D8  A$printfld/printf$1728             printf
     000049D9  A$printfld/printf$1729             printf
     000049DA  A$printfld/printf$1730             printf
     000049DE  A$printfld/printf$1731             printf
     000049E0  A$printfld/printf$1732             printf
     000049E3  A$printfld/printf$1733             printf
     000049E6  A$printfld/printf$1734             printf
     000049E9  A$printfld/printf$1735             printf
     000049EA  A$printfld/printf$1736             printf
     000049EC  A$printfld/printf$1737             printf
     000049EF  A$printfld/printf$1738             printf
     000049F1  A$printfld/printf$1739             printf
     000049F4  A$printfld/printf$1740             printf
     000049F6  A$printfld/printf$1741             printf
     000049F8  A$printfld/printf$1742             printf
     000049FA  A$printfld/printf$1743             printf
     000049FC  A$printfld/printf$1744             printf
     000049FE  A$printfld/printf$1745             printf
     00004A01  A$printfld/printf$1749             printf
     00004A01  C$printf.c$605$4_0$70              printf
     00004A05  A$printfld/printf$1750             printf
     00004A07  A$printfld/printf$1751             printf
     00004A0A  A$printfld/printf$1752             printf
     00004A0C  A$printfld/printf$1753             printf
     00004A0F  A$printfld/printf$1754             printf
     00004A12  A$printfld/printf$1755             printf
ASxxxx Linker V03.00 + NoICE + sdld,  page 29.
Hexadecimal  [32-Bits]

Area                                    Addr        Size        Decimal Bytes (Attributes)
--------------------------------        ----        ----        ------- ----- ------------
_CODE                               00004000    00003D6A =       15722. bytes (REL,CON)

      Value  Global                              Global Defined In Module
      -----  --------------------------------   ------------------------
     00004A15  A$printfld/printf$1756             printf
     00004A18  A$printfld/printf$1757             printf
     00004A19  A$printfld/printf$1758             printf
     00004A1D  A$printfld/printf$1759             printf
     00004A1F  A$printfld/printf$1760             printf
     00004A22  A$printfld/printf$1761             printf
     00004A24  A$printfld/printf$1762             printf
     00004A25  A$printfld/printf$1763             printf
     00004A28  A$printfld/printf$1764             printf
     00004A2A  A$printfld/printf$1765             printf
     00004A2B  A$printfld/printf$1766             printf
     00004A2C  A$printfld/printf$1767             printf
     00004A30  A$printfld/printf$1768             printf
     00004A31  A$printfld/printf$1769             printf
     00004A34  A$printfld/printf$1770             printf
     00004A37  A$printfld/printf$1775             printf
     00004A37  C$printf.c$606$4_0$70              printf
     00004A3B  A$printfld/printf$1776             printf
     00004A3D  A$printfld/printf$1777             printf
     00004A40  A$printfld/printf$1778             printf
     00004A42  A$printfld/printf$1779             printf
     00004A45  A$printfld/printf$1780             printf
     00004A48  A$printfld/printf$1781             printf
     00004A4B  A$printfld/printf$1782             printf
     00004A4E  A$printfld/printf$1783             printf
     00004A4F  A$printfld/printf$1784             printf
     00004A53  A$printfld/printf$1785             printf
     00004A55  A$printfld/printf$1786             printf
     00004A58  A$printfld/printf$1787             printf
     00004A5A  A$printfld/printf$1788             printf
     00004A5B  A$printfld/printf$1789             printf
     00004A5E  A$printfld/printf$1790             printf
     00004A60  A$printfld/printf$1791             printf
     00004A61  A$printfld/printf$1792             printf
     00004A62  A$printfld/printf$1793             printf
     00004A66  A$printfld/printf$1794             printf
     00004A67  A$printfld/printf$1795             printf
     00004A6A  A$printfld/printf$1796             printf
     00004A6D  A$printfld/printf$1801             printf
     00004A6D  C$printf.c$607$4_0$70              printf
     00004A71  A$printfld/printf$1802             printf
     00004A73  A$printfld/printf$1803             printf
     00004A76  A$printfld/printf$1804             printf
     00004A78  A$printfld/printf$1805             printf
     00004A7B  A$printfld/printf$1806             printf
     00004A7E  A$printfld/printf$1807             printf
     00004A81  A$printfld/printf$1808             printf
     00004A84  A$printfld/printf$1809             printf
     00004A85  A$printfld/printf$1810             printf
     00004A89  A$printfld/printf$1811             printf
     00004A8B  A$printfld/printf$1812             printf
ASxxxx Linker V03.00 + NoICE + sdld,  page 30.
Hexadecimal  [32-Bits]

Area                                    Addr        Size        Decimal Bytes (Attributes)
--------------------------------        ----        ----        ------- ----- ------------
_CODE                               00004000    00003D6A =       15722. bytes (REL,CON)

      Value  Global                              Global Defined In Module
      -----  --------------------------------   ------------------------
     00004A8E  A$printfld/printf$1813             printf
     00004A90  A$printfld/printf$1814             printf
     00004A91  A$printfld/printf$1815             printf
     00004A94  A$printfld/printf$1816             printf
     00004A96  A$printfld/printf$1817             printf
     00004A97  A$printfld/printf$1818             printf
     00004A98  A$printfld/printf$1819             printf
     00004A9C  A$printfld/printf$1820             printf
     00004A9D  A$printfld/printf$1821             printf
     00004AA0  A$printfld/printf$1822             printf
     00004AA2  A$printfld/printf$1827             printf
     00004AA2  C$printf.c$608$4_0$70              printf
     00004AA6  A$printfld/printf$1828             printf
     00004AA8  A$printfld/printf$1829             printf
     00004AAB  A$printfld/printf$1830             printf
     00004AAD  A$printfld/printf$1831             printf
     00004AB0  A$printfld/printf$1832             printf
     00004AB3  A$printfld/printf$1833             printf
     00004AB6  A$printfld/printf$1834             printf
     00004AB9  A$printfld/printf$1835             printf
     00004ABA  A$printfld/printf$1836             printf
     00004ABE  A$printfld/printf$1837             printf
     00004AC0  A$printfld/printf$1838             printf
     00004AC3  A$printfld/printf$1839             printf
     00004AC5  A$printfld/printf$1840             printf
     00004AC6  A$printfld/printf$1841             printf
     00004AC9  A$printfld/printf$1842             printf
     00004ACB  A$printfld/printf$1843             printf
     00004ACC  A$printfld/printf$1844             printf
     00004ACD  A$printfld/printf$1845             printf
     00004AD1  A$printfld/printf$1846             printf
     00004AD2  A$printfld/printf$1847             printf
     00004AD5  A$printfld/printf$1848             printf
     00004AD7  A$printfld/printf$1853             printf
     00004AD7  C$printf.c$609$4_0$70              printf
     00004ADB  A$printfld/printf$1854             printf
     00004ADD  A$printfld/printf$1855             printf
     00004AE0  A$printfld/printf$1856             printf
     00004AE2  A$printfld/printf$1857             printf
     00004AE5  A$printfld/printf$1858             printf
     00004AE8  A$printfld/printf$1859             printf
     00004AEB  A$printfld/printf$1860             printf
     00004AEE  A$printfld/printf$1861             printf
     00004AEF  A$printfld/printf$1862             printf
     00004AF3  A$printfld/printf$1863             printf
     00004AF5  A$printfld/printf$1864             printf
     00004AF8  A$printfld/printf$1865             printf
     00004AFA  A$printfld/printf$1866             printf
     00004AFB  A$printfld/printf$1867             printf
     00004AFE  A$printfld/printf$1868             printf
     00004B00  A$printfld/printf$1869             printf
ASxxxx Linker V03.00 + NoICE + sdld,  page 31.
Hexadecimal  [32-Bits]

Area                                    Addr        Size        Decimal Bytes (Attributes)
--------------------------------        ----        ----        ------- ----- ------------
_CODE                               00004000    00003D6A =       15722. bytes (REL,CON)

      Value  Global                              Global Defined In Module
      -----  --------------------------------   ------------------------
     00004B01  A$printfld/printf$1870             printf
     00004B02  A$printfld/printf$1871             printf
     00004B06  A$printfld/printf$1872             printf
     00004B07  A$printfld/printf$1873             printf
     00004B0A  A$printfld/printf$1874             printf
     00004B0C  A$printfld/printf$1879             printf
     00004B0C  C$printf.c$610$4_0$70              printf
     00004B0D  A$printfld/printf$1880             printf
     00004B11  A$printfld/printf$1881             printf
     00004B13  A$printfld/printf$1882             printf
     00004B16  A$printfld/printf$1883             printf
     00004B19  A$printfld/printf$1891             printf
     00004B19  C$printf.c$611$2_0$66              printf
     00004B19  C$printf.c$612$2_0$66              printf
     00004B1C  A$printfld/printf$1892             printf
     00004B1D  A$printfld/printf$1893             printf
     00004B1E  A$printfld/printf$1894             printf
     00004B1F  A$printfld/printf$1895             printf
     00004B20  A$printfld/printf$1896             printf
     00004B23  A$printfld/printf$1900             printf
     00004B23  C$printf.c$615$2_0$66              printf
     00004B24  A$printfld/printf$1901             printf
     00004B28  A$printfld/printf$1902             printf
     00004B2A  A$printfld/printf$1903             printf
     00004B2D  A$printfld/printf$1904             printf
     00004B30  A$printfld/printf$1908             printf
     00004B33  A$printfld/printf$1909             printf
     00004B34  A$printfld/printf$1910             printf
     00004B35  A$printfld/printf$1911             printf
     00004B39  A$printfld/printf$1912             printf
     00004B3B  A$printfld/printf$1913             printf
     00004B3E  A$printfld/printf$1914             printf
     00004B41  A$printfld/printf$1915             printf
     00004B42  A$printfld/printf$1916             printf
     00004B43  A$printfld/printf$1917             printf
     00004B47  A$printfld/printf$1918             printf
     00004B49  A$printfld/printf$1919             printf
     00004B4C  A$printfld/printf$1923             printf
     00004B4F  A$printfld/printf$1924             printf
     00004B52  A$printfld/printf$1925             printf
     00004B53  A$printfld/printf$1926             printf
     00004B57  A$printfld/printf$1927             printf
     00004B59  A$printfld/printf$1928             printf
     00004B5C  A$printfld/printf$1929             printf
     00004B5F  A$printfld/printf$1930             printf
     00004B61  A$printfld/printf$1931             printf
     00004B64  A$printfld/printf$1935             printf
     00004B64  C$printf.c$183$5_0$113             printf
     00004B67  A$printfld/printf$1936             printf
     00004B69  A$printfld/printf$1937             printf
     00004B6B  A$printfld/printf$1938             printf
ASxxxx Linker V03.00 + NoICE + sdld,  page 32.
Hexadecimal  [32-Bits]

Area                                    Addr        Size        Decimal Bytes (Attributes)
--------------------------------        ----        ----        ------- ----- ------------
_CODE                               00004000    00003D6A =       15722. bytes (REL,CON)

      Value  Global                              Global Defined In Module
      -----  --------------------------------   ------------------------
     00004B6D  A$printfld/printf$1939             printf
     00004B6F  A$printfld/printf$1940             printf
     00004B72  A$printfld/printf$1941             printf
     00004B75  A$printfld/printf$1942             printf
     00004B77  A$printfld/printf$1944             printf
     00004B7A  A$printfld/printf$1948             printf
     00004B7A  C$printf.c$617$3_0$71              printf
     00004B7D  A$printfld/printf$1949             printf
     00004B7E  A$printfld/printf$1950             printf
     00004B82  A$printfld/printf$1951             printf
     00004B84  A$printfld/printf$1952             printf
     00004B87  A$printfld/printf$1953             printf
     00004B8A  A$printfld/printf$1954             printf
     00004B8D  A$printfld/printf$1955             printf
     00004B90  A$printfld/printf$1956             printf
     00004B91  A$printfld/printf$1957             printf
     00004B94  A$printfld/printf$1958             printf
     00004B95  A$printfld/printf$1959             printf
     00004B99  A$printfld/printf$1960             printf
     00004B9B  A$printfld/printf$1961             printf
     00004B9E  A$printfld/printf$1962             printf
     00004BA1  A$printfld/printf$1963             printf
     00004BA4  A$printfld/printf$1964             printf
     00004BA5  A$printfld/printf$1965             printf
     00004BA6  A$printfld/printf$1966             printf
     00004BAA  A$printfld/printf$1967             printf
     00004BAC  A$printfld/printf$1968             printf
     00004BAF  A$printfld/printf$1969             printf
     00004BB2  A$printfld/printf$1970             printf
     00004BB3  A$printfld/printf$1971             printf
     00004BB4  A$printfld/printf$1972             printf
     00004BB8  A$printfld/printf$1973             printf
     00004BBA  A$printfld/printf$1974             printf
     00004BBD  A$printfld/printf$1975             printf
     00004BC0  A$printfld/printf$1980             printf
     00004BC0  C$printf.c$619$2_0$66              printf
     00004BC3  A$printfld/printf$1981             printf
     00004BC4  A$printfld/printf$1982             printf
     00004BC5  A$printfld/printf$1983             printf
     00004BC7  A$printfld/printf$1984             printf
     00004BCA  A$printfld/printf$1988             printf
     00004BCA  C$printf.c$620$3_0$72              printf
     00004BCD  A$printfld/printf$1989             printf
     00004BCE  A$printfld/printf$1990             printf
     00004BD2  A$printfld/printf$1991             printf
     00004BD4  A$printfld/printf$1992             printf
     00004BD7  A$printfld/printf$1993             printf
     00004BD9  A$printfld/printf$1994             printf
     00004BDA  A$printfld/printf$1995             printf
     00004BDD  A$printfld/printf$1996             printf
     00004BDF  A$printfld/printf$1997             printf
ASxxxx Linker V03.00 + NoICE + sdld,  page 33.
Hexadecimal  [32-Bits]

Area                                    Addr        Size        Decimal Bytes (Attributes)
--------------------------------        ----        ----        ------- ----- ------------
_CODE                               00004000    00003D6A =       15722. bytes (REL,CON)

      Value  Global                              Global Defined In Module
      -----  --------------------------------   ------------------------
     00004BE0  A$printfld/printf$1998             printf
     00004BE1  A$printfld/printf$1999             printf
     00004BE4  A$printfld/printf$2000             printf
     00004BE5  A$printfld/printf$2001             printf
     00004BE6  A$printfld/printf$2002             printf
     00004BEA  A$printfld/printf$2003             printf
     00004BEC  A$printfld/printf$2004             printf
     00004BEF  A$printfld/printf$2005             printf
     00004BF2  A$printfld/printf$2006             printf
     00004BF3  A$printfld/printf$2007             printf
     00004BF4  A$printfld/printf$2008             printf
     00004BF8  A$printfld/printf$2009             printf
     00004BFA  A$printfld/printf$2010             printf
     00004BFD  A$printfld/printf$2011             printf
     00004C00  A$printfld/printf$2012             printf
     00004C01  A$printfld/printf$2013             printf
     00004C05  A$printfld/printf$2014             printf
     00004C07  A$printfld/printf$2015             printf
     00004C0A  A$printfld/printf$2016             printf
     00004C0C  A$printfld/printf$2017             printf
     00004C0D  A$printfld/printf$2018             printf
     00004C10  A$printfld/printf$2019             printf
     00004C12  A$printfld/printf$2020             printf
     00004C13  A$printfld/printf$2021             printf
     00004C14  A$printfld/printf$2022             printf
     00004C17  A$printfld/printf$2023             printf
     00004C18  A$printfld/printf$2024             printf
     00004C19  A$printfld/printf$2025             printf
     00004C1A  A$printfld/printf$2026             printf
     00004C1B  A$printfld/printf$2027             printf
     00004C1C  A$printfld/printf$2028             printf
     00004C1D  A$printfld/printf$2029             printf
     00004C21  A$printfld/printf$2030             printf
     00004C23  A$printfld/printf$2031             printf
     00004C26  A$printfld/printf$2032             printf
     00004C27  A$printfld/printf$2033             printf
     00004C28  A$printfld/printf$2034             printf
     00004C2B  A$printfld/printf$2038             printf
     00004C2B  C$printf.c$621$3_0$72              printf
     00004C2F  A$printfld/printf$2039             printf
     00004C31  A$printfld/printf$2043             printf
     00004C31  C$printf.c$622$4_0$73              printf
     00004C35  A$printfld/printf$2044             printf
     00004C37  A$printfld/printf$2045             printf
     00004C3A  A$printfld/printf$2046             printf
     00004C3C  A$printfld/printf$2047             printf
     00004C3F  A$printfld/printf$2048             printf
     00004C42  A$printfld/printf$2049             printf
     00004C45  A$printfld/printf$2053             printf
     00004C45  C$printf.c$623$4_0$73              printf
     00004C48  A$printfld/printf$2054             printf
ASxxxx Linker V03.00 + NoICE + sdld,  page 34.
Hexadecimal  [32-Bits]

Area                                    Addr        Size        Decimal Bytes (Attributes)
--------------------------------        ----        ----        ------- ----- ------------
_CODE                               00004000    00003D6A =       15722. bytes (REL,CON)

      Value  Global                              Global Defined In Module
      -----  --------------------------------   ------------------------
     00004C49  A$printfld/printf$2055             printf
     00004C4D  A$printfld/printf$2056             printf
     00004C4F  A$printfld/printf$2057             printf
     00004C50  A$printfld/printf$2058             printf
     00004C51  A$printfld/printf$2059             printf
     00004C54  A$printfld/printf$2060             printf
     00004C56  A$printfld/printf$2061             printf
     00004C57  A$printfld/printf$2062             printf
     00004C58  A$printfld/printf$2063             printf
     00004C5A  A$printfld/printf$2064             printf
     00004C5D  A$printfld/printf$2065             printf
     00004C60  A$printfld/printf$2066             printf
     00004C61  A$printfld/printf$2067             printf
     00004C62  A$printfld/printf$2068             printf
     00004C66  A$printfld/printf$2069             printf
     00004C68  A$printfld/printf$2070             printf
     00004C6B  A$printfld/printf$2071             printf
     00004C6E  A$printfld/printf$2072             printf
     00004C6F  A$printfld/printf$2073             printf
     00004C70  A$printfld/printf$2074             printf
     00004C74  A$printfld/printf$2075             printf
     00004C76  A$printfld/printf$2076             printf
     00004C79  A$printfld/printf$2077             printf
     00004C7B  A$printfld/printf$2082             printf
     00004C7B  C$printf.c$626$4_0$74              printf
     00004C7E  A$printfld/printf$2083             printf
     00004C7F  A$printfld/printf$2084             printf
     00004C80  A$printfld/printf$2085             printf
     00004C84  A$printfld/printf$2086             printf
     00004C86  A$printfld/printf$2087             printf
     00004C89  A$printfld/printf$2088             printf
     00004C8C  A$printfld/printf$2089             printf
     00004C8D  A$printfld/printf$2090             printf
     00004C8E  A$printfld/printf$2091             printf
     00004C92  A$printfld/printf$2092             printf
     00004C94  A$printfld/printf$2093             printf
     00004C97  A$printfld/printf$2098             printf
     00004C97  C$printf.c$628$3_0$72              printf
     00004C9B  A$printfld/printf$2099             printf
     00004C9D  A$printfld/printf$2100             printf
     00004CA0  A$printfld/printf$2101             printf
     00004CA2  A$printfld/printf$2102             printf
     00004CA5  A$printfld/printf$2108             printf
     00004CA5  C$printf.c$632$2_0$66              printf
     00004CA6  A$printfld/printf$2109             printf
     00004CAA  A$printfld/printf$2110             printf
     00004CAC  A$printfld/printf$2111             printf
     00004CAF  A$printfld/printf$2112             printf
     00004CB2  A$printfld/printf$2116             printf
     00004CB2  C$printf.c$633$2_0$66              printf
     00004CB5  A$printfld/printf$2117             printf
ASxxxx Linker V03.00 + NoICE + sdld,  page 35.
Hexadecimal  [32-Bits]

Area                                    Addr        Size        Decimal Bytes (Attributes)
--------------------------------        ----        ----        ------- ----- ------------
_CODE                               00004000    00003D6A =       15722. bytes (REL,CON)

      Value  Global                              Global Defined In Module
      -----  --------------------------------   ------------------------
     00004CB6  A$printfld/printf$2118             printf
     00004CB7  A$printfld/printf$2119             printf
     00004CBB  A$printfld/printf$2120             printf
     00004CBD  A$printfld/printf$2121             printf
     00004CC0  A$printfld/printf$2122             printf
     00004CC3  A$printfld/printf$2123             printf
     00004CC4  A$printfld/printf$2124             printf
     00004CC5  A$printfld/printf$2125             printf
     00004CC9  A$printfld/printf$2126             printf
     00004CCB  A$printfld/printf$2127             printf
     00004CCE  A$printfld/printf$2128             printf
     00004CD1  A$printfld/printf$2129             printf
     00004CD4  A$printfld/printf$2130             printf
     00004CD5  A$printfld/printf$2131             printf
     00004CD7  A$printfld/printf$2132             printf
     00004CDA  A$printfld/printf$2136             printf
     00004CDA  C$printf.c$634$3_0$75              printf
     00004CDE  A$printfld/printf$2137             printf
     00004CE0  A$printfld/printf$2138             printf
     00004CE3  A$printfld/printf$2139             printf
     00004CE6  A$printfld/printf$2140             printf
     00004CE9  A$printfld/printf$2141             printf
     00004CEB  A$printfld/printf$2142             printf
     00004CEE  A$printfld/printf$2146             printf
     00004CEE  C$printf.c$635$3_0$75              printf
     00004CF1  A$printfld/printf$2147             printf
     00004CF2  A$printfld/printf$2148             printf
     00004CF6  A$printfld/printf$2149             printf
     00004CF8  A$printfld/printf$2150             printf
     00004CFB  A$printfld/printf$2151             printf
     00004CFD  A$printfld/printf$2152             printf
     00004CFE  A$printfld/printf$2153             printf
     00004D01  A$printfld/printf$2154             printf
     00004D03  A$printfld/printf$2155             printf
     00004D04  A$printfld/printf$2156             printf
     00004D05  A$printfld/printf$2160             printf
     00004D08  A$printfld/printf$2161             printf
     00004D09  A$printfld/printf$2162             printf
     00004D0A  A$printfld/printf$2163             printf
     00004D0E  A$printfld/printf$2164             printf
     00004D10  A$printfld/printf$2165             printf
     00004D13  A$printfld/printf$2166             printf
     00004D16  A$printfld/printf$2167             printf
     00004D17  A$printfld/printf$2168             printf
     00004D18  A$printfld/printf$2169             printf
     00004D1C  A$printfld/printf$2170             printf
     00004D1E  A$printfld/printf$2171             printf
     00004D21  A$printfld/printf$2175             printf
     00004D24  A$printfld/printf$2176             printf
     00004D27  A$printfld/printf$2177             printf
     00004D28  A$printfld/printf$2178             printf
ASxxxx Linker V03.00 + NoICE + sdld,  page 36.
Hexadecimal  [32-Bits]

Area                                    Addr        Size        Decimal Bytes (Attributes)
--------------------------------        ----        ----        ------- ----- ------------
_CODE                               00004000    00003D6A =       15722. bytes (REL,CON)

      Value  Global                              Global Defined In Module
      -----  --------------------------------   ------------------------
     00004D2A  A$printfld/printf$2179             printf
     00004D2D  A$printfld/printf$2183             printf
     00004D2D  C$printf.c$636$4_0$114             printf
     00004D30  A$printfld/printf$2187             printf
     00004D30  C$printf.c$183$6_0$116             printf
     00004D31  A$printfld/printf$2188             printf
     00004D33  A$printfld/printf$2189             printf
     00004D35  A$printfld/printf$2190             printf
     00004D37  A$printfld/printf$2191             printf
     00004D39  A$printfld/printf$2192             printf
     00004D3A  A$printfld/printf$2193             printf
     00004D3D  A$printfld/printf$2194             printf
     00004D3F  A$printfld/printf$2196             printf
     00004D42  A$printfld/printf$2200             printf
     00004D42  C$printf.c$637$4_0$76              printf
     00004D45  A$printfld/printf$2201             printf
     00004D46  A$printfld/printf$2202             printf
     00004D4A  A$printfld/printf$2203             printf
     00004D4C  A$printfld/printf$2204             printf
     00004D4F  A$printfld/printf$2205             printf
     00004D52  A$printfld/printf$2206             printf
     00004D55  A$printfld/printf$2207             printf
     00004D58  A$printfld/printf$2208             printf
     00004D59  A$printfld/printf$2209             printf
     00004D5C  A$printfld/printf$2210             printf
     00004D5D  A$printfld/printf$2211             printf
     00004D61  A$printfld/printf$2212             printf
     00004D63  A$printfld/printf$2213             printf
     00004D66  A$printfld/printf$2214             printf
     00004D69  A$printfld/printf$2215             printf
     00004D6C  A$printfld/printf$2216             printf
     00004D6D  A$printfld/printf$2217             printf
     00004D6E  A$printfld/printf$2218             printf
     00004D72  A$printfld/printf$2219             printf
     00004D74  A$printfld/printf$2220             printf
     00004D77  A$printfld/printf$2221             printf
     00004D7A  A$printfld/printf$2222             printf
     00004D7B  A$printfld/printf$2223             printf
     00004D7C  A$printfld/printf$2224             printf
     00004D80  A$printfld/printf$2225             printf
     00004D82  A$printfld/printf$2226             printf
     00004D85  A$printfld/printf$2227             printf
     00004D88  A$printfld/printf$2232             printf
     00004D88  C$printf.c$639$3_0$75              printf
     00004D8B  A$printfld/printf$2233             printf
     00004D8C  A$printfld/printf$2234             printf
     00004D8D  A$printfld/printf$2235             printf
     00004D8F  A$printfld/printf$2236             printf
     00004D92  A$printfld/printf$2240             printf
     00004D92  C$printf.c$640$4_0$77              printf
     00004D96  A$printfld/printf$2241             printf
ASxxxx Linker V03.00 + NoICE + sdld,  page 37.
Hexadecimal  [32-Bits]

Area                                    Addr        Size        Decimal Bytes (Attributes)
--------------------------------        ----        ----        ------- ----- ------------
_CODE                               00004000    00003D6A =       15722. bytes (REL,CON)

      Value  Global                              Global Defined In Module
      -----  --------------------------------   ------------------------
     00004D98  A$printfld/printf$2242             printf
     00004D9B  A$printfld/printf$2243             printf
     00004D9E  A$printfld/printf$2244             printf
     00004D9F  A$printfld/printf$2245             printf
     00004DA0  A$printfld/printf$2246             printf
     00004DA3  A$printfld/printf$2247             printf
     00004DA6  A$printfld/printf$2248             printf
     00004DA9  A$printfld/printf$2249             printf
     00004DAA  A$printfld/printf$2250             printf
     00004DAB  A$printfld/printf$2251             printf
     00004DAD  A$printfld/printf$2252             printf
     00004DAE  A$printfld/printf$2253             printf
     00004DAF  A$printfld/printf$2254             printf
     00004DB1  A$printfld/printf$2255             printf
     00004DB2  A$printfld/printf$2256             printf
     00004DB3  A$printfld/printf$2257             printf
     00004DB7  A$printfld/printf$2258             printf
     00004DB9  A$printfld/printf$2259             printf
     00004DBC  A$printfld/printf$2260             printf
     00004DBF  A$printfld/printf$2261             printf
     00004DC0  A$printfld/printf$2262             printf
     00004DC3  A$printfld/printf$2263             printf
     00004DC4  A$printfld/printf$2264             printf
     00004DC5  A$printfld/printf$2265             printf
     00004DC8  A$printfld/printf$2269             printf
     00004DC8  C$printf.c$641$4_0$77              printf
     00004DC9  A$printfld/printf$2270             printf
     00004DCC  A$printfld/printf$2271             printf
     00004DCF  A$printfld/printf$2272             printf
     00004DD2  A$printfld/printf$2273             printf
     00004DD4  A$printfld/printf$2275             printf
     00004DD7  A$printfld/printf$2276             printf
     00004DD9  A$printfld/printf$2278             printf
     00004DDA  A$printfld/printf$2279             printf
     00004DDE  A$printfld/printf$2280             printf
     00004DE0  A$printfld/printf$2281             printf
     00004DE3  A$printfld/printf$2282             printf
     00004DE6  A$printfld/printf$2284             printf
     00004DE9  A$printfld/printf$2285             printf
     00004DEA  A$printfld/printf$2286             printf
     00004DEB  A$printfld/printf$2287             printf
     00004DEF  A$printfld/printf$2288             printf
     00004DF1  A$printfld/printf$2289             printf
     00004DF4  A$printfld/printf$2290             printf
     00004DF7  A$printfld/printf$2291             printf
     00004DF8  A$printfld/printf$2292             printf
     00004DF9  A$printfld/printf$2293             printf
     00004DFD  A$printfld/printf$2294             printf
     00004DFF  A$printfld/printf$2295             printf
     00004E02  A$printfld/printf$2299             printf
     00004E02  C$printf.c$642$4_0$77              printf
ASxxxx Linker V03.00 + NoICE + sdld,  page 38.
Hexadecimal  [32-Bits]

Area                                    Addr        Size        Decimal Bytes (Attributes)
--------------------------------        ----        ----        ------- ----- ------------
_CODE                               00004000    00003D6A =       15722. bytes (REL,CON)

      Value  Global                              Global Defined In Module
      -----  --------------------------------   ------------------------
     00004E06  A$printfld/printf$2300             printf
     00004E08  A$printfld/printf$2301             printf
     00004E0B  A$printfld/printf$2302             printf
     00004E0D  A$printfld/printf$2303             printf
     00004E10  A$printfld/printf$2309             printf
     00004E10  C$printf.c$647$2_0$66              printf
     00004E13  A$printfld/printf$2310             printf
     00004E14  A$printfld/printf$2311             printf
     00004E15  A$printfld/printf$2312             printf
     00004E16  A$printfld/printf$2313             printf
     00004E17  A$printfld/printf$2314             printf
     00004E18  A$printfld/printf$2315             printf
     00004E19  A$printfld/printf$2316             printf
     00004E1A  A$printfld/printf$2317             printf
     00004E1C  A$printfld/printf$2318             printf
     00004E1E  A$printfld/printf$2319             printf
     00004E20  A$printfld/printf$2320             printf
     00004E23  A$printfld/printf$2321             printf
     00004E25  A$printfld/printf$2322             printf
     00004E27  A$printfld/printf$2323             printf
     00004E29  A$printfld/printf$2324             printf
     00004E2C  A$printfld/printf$2325             printf
     00004E2E  A$printfld/printf$2326             printf
     00004E31  A$printfld/printf$2327             printf
     00004E34  A$printfld/printf$2335             printf
     00004E34  C$printf.c$648$3_0$78              printf
     00004E34  C$printf.c$649$3_0$78              printf
     00004E38  A$printfld/printf$2336             printf
     00004E3A  A$printfld/printf$2337             printf
     00004E3D  A$printfld/printf$2338             printf
     00004E40  A$printfld/printf$2339             printf
     00004E43  A$printfld/printf$2340             printf
     00004E45  A$printfld/printf$2341             printf
     00004E48  A$printfld/printf$2345             printf
     00004E48  C$printf.c$650$3_0$78              printf
     00004E49  A$printfld/printf$2346             printf
     00004E4C  A$printfld/printf$2347             printf
     00004E4D  A$printfld/printf$2348             printf
     00004E4F  A$printfld/printf$2349             printf
     00004E50  A$printfld/printf$2350             printf
     00004E51  A$printfld/printf$2351             printf
     00004E53  A$printfld/printf$2352             printf
     00004E54  A$printfld/printf$2353             printf
     00004E55  A$printfld/printf$2357             printf
     00004E55  C$printf.c$651$3_0$78              printf
     00004E58  A$printfld/printf$2358             printf
     00004E59  A$printfld/printf$2359             printf
     00004E5A  A$printfld/printf$2360             printf
     00004E5B  A$printfld/printf$2361             printf
     00004E5C  A$printfld/printf$2362             printf
     00004E5D  A$printfld/printf$2363             printf
ASxxxx Linker V03.00 + NoICE + sdld,  page 39.
Hexadecimal  [32-Bits]

Area                                    Addr        Size        Decimal Bytes (Attributes)
--------------------------------        ----        ----        ------- ----- ------------
_CODE                               00004000    00003D6A =       15722. bytes (REL,CON)

      Value  Global                              Global Defined In Module
      -----  --------------------------------   ------------------------
     00004E5E  A$printfld/printf$2364             printf
     00004E5F  A$printfld/printf$2365             printf
     00004E61  A$printfld/printf$2366             printf
     00004E64  A$printfld/printf$2370             printf
     00004E64  C$printf.c$652$4_0$79              printf
     00004E68  A$printfld/printf$2371             printf
     00004E6A  A$printfld/printf$2372             printf
     00004E6D  A$printfld/printf$2373             printf
     00004E70  A$printfld/printf$2374             printf
     00004E73  A$printfld/printf$2375             printf
     00004E75  A$printfld/printf$2376             printf
     00004E78  A$printfld/printf$2380             printf
     00004E78  C$printf.c$653$4_0$79              printf
     00004E79  A$printfld/printf$2381             printf
     00004E7C  A$printfld/printf$2382             printf
     00004E7D  A$printfld/printf$2383             printf
     00004E7F  A$printfld/printf$2384             printf
     00004E80  A$printfld/printf$2385             printf
     00004E81  A$printfld/printf$2386             printf
     00004E83  A$printfld/printf$2387             printf
     00004E84  A$printfld/printf$2388             printf
     00004E85  A$printfld/printf$2392             printf
     00004E85  C$printf.c$655$3_0$78              printf
     00004E88  A$printfld/printf$2400             printf
     00004E88  C$printf.c$656$3_0$78              printf
     00004E88  C$printf.c$657$3_0$78              printf
     00004E8C  A$printfld/printf$2401             printf
     00004E8E  A$printfld/printf$2402             printf
     00004E91  A$printfld/printf$2403             printf
     00004E93  A$printfld/printf$2404             printf
     00004E96  A$printfld/printf$2405             printf
     00004E99  A$printfld/printf$2406             printf
     00004E9C  A$printfld/printf$2410             printf
     00004E9C  C$printf.c$658$3_0$78              printf
     00004E9D  A$printfld/printf$2411             printf
     00004EA0  A$printfld/printf$2412             printf
     00004EA1  A$printfld/printf$2413             printf
     00004EA3  A$printfld/printf$2414             printf
     00004EA4  A$printfld/printf$2415             printf
     00004EA5  A$printfld/printf$2416             printf
     00004EA7  A$printfld/printf$2417             printf
     00004EA8  A$printfld/printf$2418             printf
     00004EA9  A$printfld/printf$2422             printf
     00004EA9  C$printf.c$659$3_0$78              printf
     00004EAC  A$printfld/printf$2423             printf
     00004EAD  A$printfld/printf$2424             printf
     00004EAE  A$printfld/printf$2425             printf
     00004EAF  A$printfld/printf$2426             printf
     00004EB0  A$printfld/printf$2427             printf
     00004EB1  A$printfld/printf$2428             printf
     00004EB3  A$printfld/printf$2429             printf
ASxxxx Linker V03.00 + NoICE + sdld,  page 40.
Hexadecimal  [32-Bits]

Area                                    Addr        Size        Decimal Bytes (Attributes)
--------------------------------        ----        ----        ------- ----- ------------
_CODE                               00004000    00003D6A =       15722. bytes (REL,CON)

      Value  Global                              Global Defined In Module
      -----  --------------------------------   ------------------------
     00004EB6  A$printfld/printf$2433             printf
     00004EB6  C$printf.c$660$4_0$80              printf
     00004EBA  A$printfld/printf$2434             printf
     00004EBC  A$printfld/printf$2435             printf
     00004EBF  A$printfld/printf$2436             printf
     00004EC1  A$printfld/printf$2437             printf
     00004EC4  A$printfld/printf$2438             printf
     00004EC7  A$printfld/printf$2439             printf
     00004ECA  A$printfld/printf$2443             printf
     00004ECA  C$printf.c$661$4_0$80              printf
     00004ECB  A$printfld/printf$2444             printf
     00004ECF  A$printfld/printf$2445             printf
     00004ED1  A$printfld/printf$2446             printf
     00004ED4  A$printfld/printf$2447             printf
     00004ED7  A$printfld/printf$2451             printf
     00004ED7  C$printf.c$663$3_0$78              printf
     00004ED9  A$printfld/printf$2459             printf
     00004ED9  C$printf.c$665$3_0$78              printf
     00004ED9  C$printf.c$666$3_0$78              printf
     00004EDD  A$printfld/printf$2460             printf
     00004EDF  A$printfld/printf$2461             printf
     00004EE2  A$printfld/printf$2462             printf
     00004EE5  A$printfld/printf$2463             printf
     00004EE8  A$printfld/printf$2464             printf
     00004EEA  A$printfld/printf$2465             printf
     00004EED  A$printfld/printf$2469             printf
     00004EED  C$printf.c$667$3_0$78              printf
     00004EEE  A$printfld/printf$2470             printf
     00004EF1  A$printfld/printf$2471             printf
     00004EF2  A$printfld/printf$2472             printf
     00004EF4  A$printfld/printf$2473             printf
     00004EF5  A$printfld/printf$2474             printf
     00004EF6  A$printfld/printf$2475             printf
     00004EF8  A$printfld/printf$2476             printf
     00004EF9  A$printfld/printf$2477             printf
     00004EFA  A$printfld/printf$2481             printf
     00004EFA  C$printf.c$668$3_0$78              printf
     00004EFC  A$printfld/printf$2489             printf
     00004EFC  C$printf.c$670$3_0$78              printf
     00004EFC  C$printf.c$671$3_0$78              printf
     00004F00  A$printfld/printf$2490             printf
     00004F02  A$printfld/printf$2491             printf
     00004F05  A$printfld/printf$2492             printf
     00004F08  A$printfld/printf$2493             printf
     00004F0B  A$printfld/printf$2494             printf
     00004F0D  A$printfld/printf$2495             printf
     00004F10  A$printfld/printf$2499             printf
     00004F10  C$printf.c$672$3_0$78              printf
     00004F11  A$printfld/printf$2500             printf
     00004F14  A$printfld/printf$2501             printf
     00004F15  A$printfld/printf$2502             printf
ASxxxx Linker V03.00 + NoICE + sdld,  page 41.
Hexadecimal  [32-Bits]

Area                                    Addr        Size        Decimal Bytes (Attributes)
--------------------------------        ----        ----        ------- ----- ------------
_CODE                               00004000    00003D6A =       15722. bytes (REL,CON)

      Value  Global                              Global Defined In Module
      -----  --------------------------------   ------------------------
     00004F17  A$printfld/printf$2503             printf
     00004F18  A$printfld/printf$2504             printf
     00004F19  A$printfld/printf$2505             printf
     00004F1B  A$printfld/printf$2506             printf
     00004F1C  A$printfld/printf$2507             printf
     00004F1D  A$printfld/printf$2511             printf
     00004F1D  C$printf.c$673$3_0$78              printf
     00004F1F  A$printfld/printf$2519             printf
     00004F1F  C$printf.c$674$3_0$78              printf
     00004F1F  C$printf.c$675$3_0$78              printf
     00004F23  A$printfld/printf$2520             printf
     00004F25  A$printfld/printf$2521             printf
     00004F28  A$printfld/printf$2522             printf
     00004F2B  A$printfld/printf$2523             printf
     00004F2E  A$printfld/printf$2524             printf
     00004F30  A$printfld/printf$2525             printf
     00004F33  A$printfld/printf$2529             printf
     00004F33  C$printf.c$676$3_0$78              printf
     00004F34  A$printfld/printf$2530             printf
     00004F37  A$printfld/printf$2531             printf
     00004F38  A$printfld/printf$2532             printf
     00004F3A  A$printfld/printf$2533             printf
     00004F3B  A$printfld/printf$2534             printf
     00004F3C  A$printfld/printf$2535             printf
     00004F3E  A$printfld/printf$2536             printf
     00004F3F  A$printfld/printf$2537             printf
     00004F40  A$printfld/printf$2545             printf
     00004F40  C$printf.c$587$1_0$64              printf
     00004F40  C$printf.c$680$2_0$66              printf
     00004F43  A$printfld/printf$2546             printf
     00004F44  A$printfld/printf$2547             printf
     00004F45  A$printfld/printf$2548             printf
     00004F46  A$printfld/printf$2549             printf
     00004F47  A$printfld/printf$2550             printf
     00004F48  A$printfld/printf$2554             printf
     00004F48  C$printf.c$616$1_0$64              printf
     00004F49  A$printfld/printf$2555             printf
     00004F4D  A$printfld/printf$2556             printf
     00004F4F  A$printfld/printf$2557             printf
     00004F52  A$printfld/printf$2561             printf
     00004F52  C$printf.c$683$2_0$66              printf
     00004F55  A$printfld/printf$2562             printf
     00004F57  A$printfld/printf$2563             printf
     00004F5A  A$printfld/printf$2564             printf
     00004F5D  A$printfld/printf$2565             printf
     00004F5F  A$printfld/printf$2566             printf
     00004F61  A$printfld/printf$2567             printf
     00004F63  A$printfld/printf$2568             printf
     00004F64  A$printfld/printf$2570             printf
     00004F65  A$printfld/printf$2571             printf
     00004F66  A$printfld/printf$2572             printf
ASxxxx Linker V03.00 + NoICE + sdld,  page 42.
Hexadecimal  [32-Bits]

Area                                    Addr        Size        Decimal Bytes (Attributes)
--------------------------------        ----        ----        ------- ----- ------------
_CODE                               00004000    00003D6A =       15722. bytes (REL,CON)

      Value  Global                              Global Defined In Module
      -----  --------------------------------   ------------------------
     00004F68  A$printfld/printf$2573             printf
     00004F6C  A$printfld/printf$2574             printf
     00004F6E  A$printfld/printf$2575             printf
     00004F71  A$printfld/printf$2576             printf
     00004F73  A$printfld/printf$2577             printf
     00004F75  A$printfld/printf$2578             printf
     00004F78  A$printfld/printf$2579             printf
     00004F7A  A$printfld/printf$2580             printf
     00004F7D  A$printfld/printf$2581             printf
     00004F80  A$printfld/printf$2582             printf
     00004F82  A$printfld/printf$2583             printf
     00004F84  A$printfld/printf$2584             printf
     00004F87  A$printfld/printf$2585             printf
     00004F89  A$printfld/printf$2586             printf
     00004F8B  A$printfld/printf$2587             printf
     00004F8E  A$printfld/printf$2588             printf
     00004F90  A$printfld/printf$2589             printf
     00004F92  A$printfld/printf$2590             printf
     00004F95  A$printfld/printf$2591             printf
     00004F97  A$printfld/printf$2592             printf
     00004F9A  A$printfld/printf$2593             printf
     00004F9D  A$printfld/printf$2594             printf
     00004F9F  A$printfld/printf$2595             printf
     00004FA2  A$printfld/printf$2596             printf
     00004FA5  A$printfld/printf$2597             printf
     00004FA7  A$printfld/printf$2598             printf
     00004FA9  A$printfld/printf$2599             printf
     00004FAC  A$printfld/printf$2600             printf
     00004FAE  A$printfld/printf$2601             printf
     00004FB1  A$printfld/printf$2609             printf
     00004FB1  C$printf.c$690$3_0$81              printf
     00004FB1  C$printf.c$693$4_0$82              printf
     00004FB4  A$printfld/printf$2610             printf
     00004FB5  A$printfld/printf$2611             printf
     00004FB6  A$printfld/printf$2612             printf
     00004FB8  A$printfld/printf$2613             printf
     00004FBA  A$printfld/printf$2614             printf
     00004FBB  A$printfld/printf$2615             printf
     00004FBC  A$printfld/printf$2616             printf
     00004FBE  A$printfld/printf$2621             printf
     00004FBE  C$printf.c$694$5_0$83              printf
     00004FC2  A$printfld/printf$2622             printf
     00004FC4  A$printfld/printf$2623             printf
     00004FC8  A$printfld/printf$2624             printf
     00004FC9  A$printfld/printf$2625             printf
     00004FCC  A$printfld/printf$2626             printf
     00004FCE  A$printfld/printf$2631             printf
     00004FCE  C$printf.c$696$4_0$82              printf
     00004FD2  A$printfld/printf$2632             printf
     00004FD4  A$printfld/printf$2633             printf
     00004FD7  A$printfld/printf$2634             printf
ASxxxx Linker V03.00 + NoICE + sdld,  page 43.
Hexadecimal  [32-Bits]

Area                                    Addr        Size        Decimal Bytes (Attributes)
--------------------------------        ----        ----        ------- ----- ------------
_CODE                               00004000    00003D6A =       15722. bytes (REL,CON)

      Value  Global                              Global Defined In Module
      -----  --------------------------------   ------------------------
     00004FD9  A$printfld/printf$2635             printf
     00004FDB  A$printfld/printf$2639             printf
     00004FDB  C$printf.c$697$5_0$84              printf
     00004FDD  A$printfld/printf$2640             printf
     00004FDF  A$printfld/printf$2641             printf
     00004FE1  A$printfld/printf$2642             printf
     00004FE5  A$printfld/printf$2643             printf
     00004FE6  A$printfld/printf$2644             printf
     00004FE9  A$printfld/printf$2645             printf
     00004FEB  A$printfld/printf$2650             printf
     00004FEB  C$printf.c$699$4_0$82              printf
     00004FEF  A$printfld/printf$2651             printf
     00004FF1  A$printfld/printf$2652             printf
     00004FF4  A$printfld/printf$2653             printf
     00004FF6  A$printfld/printf$2654             printf
     00004FF8  A$printfld/printf$2658             printf
     00004FF8  C$printf.c$700$5_0$85              printf
     00004FFA  A$printfld/printf$2659             printf
     00004FFC  A$printfld/printf$2660             printf
     00004FFE  A$printfld/printf$2661             printf
     00005002  A$printfld/printf$2662             printf
     00005003  A$printfld/printf$2663             printf
     00005006  A$printfld/printf$2664             printf
     00005008  A$printfld/printf$2669             printf
     00005008  C$printf.c$703$5_0$86              printf
     0000500C  A$printfld/printf$2670             printf
     0000500E  A$printfld/printf$2671             printf
     00005012  A$printfld/printf$2672             printf
     00005013  A$printfld/printf$2673             printf
     00005016  A$printfld/printf$2677             printf
     00005016  C$printf.c$704$5_0$86              printf
     0000501A  A$printfld/printf$2678             printf
     0000501C  A$printfld/printf$2679             printf
     0000501F  A$printfld/printf$2680             printf
     00005021  A$printfld/printf$2681             printf
     00005024  A$printfld/printf$2682             printf
     00005027  A$printfld/printf$2683             printf
     0000502A  A$printfld/printf$2688             printf
     0000502A  C$printf.c$707$4_0$82              printf
     0000502B  A$printfld/printf$2689             printf
     0000502C  A$printfld/printf$2690             printf
     0000502E  A$printfld/printf$2694             printf
     0000502E  C$printf.c$708$5_0$87              printf
     00005032  A$printfld/printf$2695             printf
     00005034  A$printfld/printf$2696             printf
     00005037  A$printfld/printf$2697             printf
     00005039  A$printfld/printf$2698             printf
     0000503C  A$printfld/printf$2699             printf
     0000503F  A$printfld/printf$2700             printf
     00005042  A$printfld/printf$2705             printf
     00005042  C$printf.c$683$1_0$64              printf
ASxxxx Linker V03.00 + NoICE + sdld,  page 44.
Hexadecimal  [32-Bits]

Area                                    Addr        Size        Decimal Bytes (Attributes)
--------------------------------        ----        ----        ------- ----- ------------
_CODE                               00004000    00003D6A =       15722. bytes (REL,CON)

      Value  Global                              Global Defined In Module
      -----  --------------------------------   ------------------------
     00005045  A$printfld/printf$2706             printf
     00005046  A$printfld/printf$2707             printf
     00005047  A$printfld/printf$2708             printf
     00005049  A$printfld/printf$2709             printf
     0000504B  A$printfld/printf$2710             printf
     0000504D  A$printfld/printf$2711             printf
     0000504E  A$printfld/printf$2713             printf
     0000504F  A$printfld/printf$2717             printf
     0000504F  C$printf.c$712$4_0$82              printf
     00005051  A$printfld/printf$2718             printf
     00005053  A$printfld/printf$2719             printf
     00005056  A$printfld/printf$2720             printf
     00005057  A$printfld/printf$2721             printf
     00005058  A$printfld/printf$2722             printf
     0000505A  A$printfld/printf$2723             printf
     0000505C  A$printfld/printf$2727             printf
     0000505C  C$printf.c$713$5_0$88              printf
     00005060  A$printfld/printf$2728             printf
     00005062  A$printfld/printf$2729             printf
     00005065  A$printfld/printf$2730             printf
     00005067  A$printfld/printf$2731             printf
     0000506A  A$printfld/printf$2732             printf
     0000506D  A$printfld/printf$2733             printf
     00005070  A$printfld/printf$2738             printf
     00005070  C$printf.c$717$4_0$82              printf
     00005073  A$printfld/printf$2739             printf
     00005074  A$printfld/printf$2740             printf
     00005075  A$printfld/printf$2741             printf
     00005077  A$printfld/printf$2742             printf
     00005079  A$printfld/printf$2746             printf
     00005079  C$printf.c$718$5_0$89              printf
     0000507D  A$printfld/printf$2747             printf
     0000507F  A$printfld/printf$2748             printf
     00005082  A$printfld/printf$2749             printf
     00005084  A$printfld/printf$2750             printf
     00005087  A$printfld/printf$2751             printf
     0000508A  A$printfld/printf$2752             printf
     0000508D  A$printfld/printf$2757             printf
     0000508D  C$printf.c$724$1_0$64              printf
     0000508F  A$printfld/printf$2758             printf
     00005092  A$printfld/printf$2759             printf
     00005093  A$printfld/printf$2760             printf
     00005094  A$printfld/printf$2761             printf
     00005096  A$printfld/printf$2762             printf
     00005097  A$printfld/printf$2766             printf
     00005097  C$printf.c$722$4_0$82              printf
     00005098  A$printfld/printf$2767             printf
     00005099  A$printfld/printf$2768             printf
     0000509B  A$printfld/printf$2769             printf
     0000509E  A$printfld/printf$2770             printf
     0000509F  A$printfld/printf$2771             printf
ASxxxx Linker V03.00 + NoICE + sdld,  page 45.
Hexadecimal  [32-Bits]

Area                                    Addr        Size        Decimal Bytes (Attributes)
--------------------------------        ----        ----        ------- ----- ------------
_CODE                               00004000    00003D6A =       15722. bytes (REL,CON)

      Value  Global                              Global Defined In Module
      -----  --------------------------------   ------------------------
     000050A0  A$printfld/printf$2772             printf
     000050A2  A$printfld/printf$2773             printf
     000050A5  A$printfld/printf$2778             printf
     000050A5  C$printf.c$724$5_0$90              printf
     000050A6  A$printfld/printf$2779             printf
     000050A7  A$printfld/printf$2780             printf
     000050AA  A$printfld/printf$2784             printf
     000050AD  A$printfld/printf$2785             printf
     000050AE  A$printfld/printf$2786             printf
     000050AF  A$printfld/printf$2787             printf
     000050B3  A$printfld/printf$2788             printf
     000050B5  A$printfld/printf$2789             printf
     000050B8  A$printfld/printf$2790             printf
     000050BB  A$printfld/printf$2791             printf
     000050BC  A$printfld/printf$2792             printf
     000050BD  A$printfld/printf$2793             printf
     000050C1  A$printfld/printf$2794             printf
     000050C3  A$printfld/printf$2795             printf
     000050C6  A$printfld/printf$2796             printf
     000050C7  A$printfld/printf$2797             printf
     000050CA  A$printfld/printf$2798             printf
     000050CD  A$printfld/printf$2802             printf
     000050CD  C$printf.c$730$5_0$90              printf
     000050D0  A$printfld/printf$2803             printf
     000050D1  A$printfld/printf$2804             printf
     000050D2  A$printfld/printf$2805             printf
     000050D3  A$printfld/printf$2806             printf
     000050D6  A$printfld/printf$2810             printf
     000050D6  C$printf.c$731$6_0$92              printf
     000050DA  A$printfld/printf$2811             printf
     000050DC  A$printfld/printf$2812             printf
     000050DF  A$printfld/printf$2813             printf
     000050E1  A$printfld/printf$2814             printf
     000050E2  A$printfld/printf$2815             printf
     000050E5  A$printfld/printf$2816             printf
     000050E7  A$printfld/printf$2817             printf
     000050E8  A$printfld/printf$2818             printf
     000050EB  A$printfld/printf$2819             printf
     000050EE  A$printfld/printf$2820             printf
     000050EF  A$printfld/printf$2821             printf
     000050F1  A$printfld/printf$2822             printf
     000050F2  A$printfld/printf$2823             printf
     000050F3  A$printfld/printf$2824             printf
     000050F5  A$printfld/printf$2825             printf
     000050F6  A$printfld/printf$2826             printf
     000050F9  A$printfld/printf$2827             printf
     000050FA  A$printfld/printf$2828             printf
     000050FB  A$printfld/printf$2829             printf
     000050FE  A$printfld/printf$2830             printf
     00005100  A$printfld/printf$2834             printf
     00005100  C$printf.c$732$6_0$92              printf
ASxxxx Linker V03.00 + NoICE + sdld,  page 46.
Hexadecimal  [32-Bits]

Area                                    Addr        Size        Decimal Bytes (Attributes)
--------------------------------        ----        ----        ------- ----- ------------
_CODE                               00004000    00003D6A =       15722. bytes (REL,CON)

      Value  Global                              Global Defined In Module
      -----  --------------------------------   ------------------------
     00005103  A$printfld/printf$2835             printf
     00005104  A$printfld/printf$2836             printf
     00005108  A$printfld/printf$2837             printf
     0000510A  A$printfld/printf$2838             printf
     0000510D  A$printfld/printf$2839             printf
     0000510E  A$printfld/printf$2840             printf
     00005110  A$printfld/printf$2841             printf
     00005111  A$printfld/printf$2842             printf
     00005112  A$printfld/printf$2843             printf
     00005115  A$printfld/printf$2844             printf
     00005118  A$printfld/printf$2845             printf
     0000511A  A$printfld/printf$2846             printf
     0000511D  A$printfld/printf$2847             printf
     0000511F  A$printfld/printf$2848             printf
     00005122  A$printfld/printf$2849             printf
     00005125  A$printfld/printf$2850             printf
     00005127  A$printfld/printf$2852             printf
     0000512A  A$printfld/printf$2853             printf
     0000512E  A$printfld/printf$2854             printf
     00005130  A$printfld/printf$2855             printf
     00005133  A$printfld/printf$2856             printf
     00005136  A$printfld/printf$2857             printf
     00005139  A$printfld/printf$2858             printf
     0000513C  A$printfld/printf$2859             printf
     0000513E  A$printfld/printf$2861             printf
     00005141  A$printfld/printf$2862             printf
     00005142  A$printfld/printf$2863             printf
     00005143  A$printfld/printf$2864             printf
     00005144  A$printfld/printf$2865             printf
     00005145  A$printfld/printf$2866             printf
     00005147  A$printfld/printf$2867             printf
     00005148  A$printfld/printf$2868             printf
     00005149  A$printfld/printf$2869             printf
     0000514A  A$printfld/printf$2870             printf
     0000514C  A$printfld/printf$2871             printf
     0000514D  A$printfld/printf$2872             printf
     0000514E  A$printfld/printf$2873             printf
     0000514F  A$printfld/printf$2874             printf
     00005151  A$printfld/printf$2875             printf
     00005152  A$printfld/printf$2876             printf
     00005153  A$printfld/printf$2877             printf
     00005154  A$printfld/printf$2879             printf
     00005158  A$printfld/printf$2880             printf
     0000515A  A$printfld/printf$2881             printf
     0000515D  A$printfld/printf$2882             printf
     00005160  A$printfld/printf$2883             printf
     00005161  A$printfld/printf$2884             printf
     00005163  A$printfld/printf$2885             printf
     00005165  A$printfld/printf$2886             printf
     00005168  A$printfld/printf$2887             printf
     0000516B  A$printfld/printf$2888             printf
ASxxxx Linker V03.00 + NoICE + sdld,  page 47.
Hexadecimal  [32-Bits]

Area                                    Addr        Size        Decimal Bytes (Attributes)
--------------------------------        ----        ----        ------- ----- ------------
_CODE                               00004000    00003D6A =       15722. bytes (REL,CON)

      Value  Global                              Global Defined In Module
      -----  --------------------------------   ------------------------
     0000516C  A$printfld/printf$2889             printf
     0000516E  A$printfld/printf$2890             printf
     00005170  A$printfld/printf$2891             printf
     00005173  A$printfld/printf$2892             printf
     00005176  A$printfld/printf$2893             printf
     00005177  A$printfld/printf$2894             printf
     00005179  A$printfld/printf$2895             printf
     0000517B  A$printfld/printf$2896             printf
     0000517E  A$printfld/printf$2897             printf
     00005181  A$printfld/printf$2898             printf
     00005182  A$printfld/printf$2899             printf
     00005185  A$printfld/printf$2900             printf
     00005188  A$printfld/printf$2901             printf
     00005189  A$printfld/printf$2902             printf
     0000518C  A$printfld/printf$2903             printf
     0000518D  A$printfld/printf$2904             printf
     0000518E  A$printfld/printf$2905             printf
     0000518F  A$printfld/printf$2906             printf
     00005190  A$printfld/printf$2907             printf
     00005191  A$printfld/printf$2908             printf
     00005192  A$printfld/printf$2909             printf
     00005195  A$printfld/printf$2910             printf
     00005196  A$printfld/printf$2911             printf
     00005197  A$printfld/printf$2912             printf
     00005198  A$printfld/printf$2913             printf
     00005199  A$printfld/printf$2914             printf
     0000519A  A$printfld/printf$2915             printf
     0000519D  A$printfld/printf$2916             printf
     0000519E  A$printfld/printf$2917             printf
     0000519F  A$printfld/printf$2918             printf
     000051A0  A$printfld/printf$2919             printf
     000051A1  A$printfld/printf$2920             printf
     000051A2  A$printfld/printf$2921             printf
     000051A6  A$printfld/printf$2922             printf
     000051A8  A$printfld/printf$2923             printf
     000051AB  A$printfld/printf$2924             printf
     000051AE  A$printfld/printf$2925             printf
     000051AF  A$printfld/printf$2926             printf
     000051B1  A$printfld/printf$2927             printf
     000051B3  A$printfld/printf$2928             printf
     000051B6  A$printfld/printf$2929             printf
     000051B9  A$printfld/printf$2930             printf
     000051BA  A$printfld/printf$2931             printf
     000051BD  A$printfld/printf$2932             printf
     000051C1  A$printfld/printf$2933             printf
     000051C3  A$printfld/printf$2934             printf
     000051C5  A$printfld/printf$2935             printf
     000051C9  A$printfld/printf$2936             printf
     000051CB  A$printfld/printf$2937             printf
     000051CE  A$printfld/printf$2938             printf
     000051D1  A$printfld/printf$2939             printf
ASxxxx Linker V03.00 + NoICE + sdld,  page 48.
Hexadecimal  [32-Bits]

Area                                    Addr        Size        Decimal Bytes (Attributes)
--------------------------------        ----        ----        ------- ----- ------------
_CODE                               00004000    00003D6A =       15722. bytes (REL,CON)

      Value  Global                              Global Defined In Module
      -----  --------------------------------   ------------------------
     000051D4  A$printfld/printf$2944             printf
     000051D7  A$printfld/printf$2945             printf
     000051D8  A$printfld/printf$2946             printf
     000051DC  A$printfld/printf$2947             printf
     000051DE  A$printfld/printf$2948             printf
     000051E1  A$printfld/printf$2949             printf
     000051E3  A$printfld/printf$2950             printf
     000051E4  A$printfld/printf$2951             printf
     000051E7  A$printfld/printf$2952             printf
     000051E9  A$printfld/printf$2953             printf
     000051EA  A$printfld/printf$2954             printf
     000051EB  A$printfld/printf$2958             printf
     000051EE  A$printfld/printf$2959             printf
     000051EF  A$printfld/printf$2960             printf
     000051F0  A$printfld/printf$2961             printf
     000051F1  A$printfld/printf$2962             printf
     000051F2  A$printfld/printf$2963             printf
     000051F3  A$printfld/printf$2964             printf
     000051F4  A$printfld/printf$2965             printf
     000051F5  A$printfld/printf$2966             printf
     000051F6  A$printfld/printf$2967             printf
     000051F7  A$printfld/printf$2968             printf
     000051F8  A$printfld/printf$2969             printf
     000051F9  A$printfld/printf$2970             printf
     000051FC  A$printfld/printf$2971             printf
     000051FD  A$printfld/printf$2972             printf
     000051FE  A$printfld/printf$2973             printf
     00005200  A$printfld/printf$2974             printf
     00005202  A$printfld/printf$2975             printf
     00005205  A$printfld/printf$2976             printf
     00005206  A$printfld/printf$2977             printf
     00005207  A$printfld/printf$2978             printf
     0000520B  A$printfld/printf$2979             printf
     0000520D  A$printfld/printf$2980             printf
     00005210  A$printfld/printf$2981             printf
     00005213  A$printfld/printf$2982             printf
     00005214  A$printfld/printf$2983             printf
     00005215  A$printfld/printf$2984             printf
     00005219  A$printfld/printf$2985             printf
     0000521B  A$printfld/printf$2986             printf
     0000521E  A$printfld/printf$2987             printf
     0000521F  A$printfld/printf$2988             printf
     00005220  A$printfld/printf$2989             printf
     00005221  A$printfld/printf$2990             printf
     00005222  A$printfld/printf$2991             printf
     00005224  A$printfld/printf$2993             printf
     00005227  A$printfld/printf$2994             printf
     00005228  A$printfld/printf$2995             printf
     00005229  A$printfld/printf$2996             printf
     0000522A  A$printfld/printf$2997             printf
     0000522C  A$printfld/printf$2998             printf
ASxxxx Linker V03.00 + NoICE + sdld,  page 49.
Hexadecimal  [32-Bits]

Area                                    Addr        Size        Decimal Bytes (Attributes)
--------------------------------        ----        ----        ------- ----- ------------
_CODE                               00004000    00003D6A =       15722. bytes (REL,CON)

      Value  Global                              Global Defined In Module
      -----  --------------------------------   ------------------------
     0000522F  A$printfld/printf$2999             printf
     00005230  A$printfld/printf$3000             printf
     00005231  A$printfld/printf$3001             printf
     00005235  A$printfld/printf$3002             printf
     00005237  A$printfld/printf$3003             printf
     0000523A  A$printfld/printf$3004             printf
     0000523D  A$printfld/printf$3005             printf
     0000523E  A$printfld/printf$3006             printf
     0000523F  A$printfld/printf$3007             printf
     00005243  A$printfld/printf$3008             printf
     00005245  A$printfld/printf$3009             printf
     00005248  A$printfld/printf$3010             printf
     0000524A  A$printfld/printf$3012             printf
     0000524D  A$printfld/printf$3013             printf
     0000524E  A$printfld/printf$3014             printf
     0000524F  A$printfld/printf$3015             printf
     00005253  A$printfld/printf$3016             printf
     00005255  A$printfld/printf$3017             printf
     00005258  A$printfld/printf$3018             printf
     0000525B  A$printfld/printf$3019             printf
     0000525C  A$printfld/printf$3020             printf
     0000525D  A$printfld/printf$3021             printf
     00005261  A$printfld/printf$3022             printf
     00005263  A$printfld/printf$3023             printf
     00005266  A$printfld/printf$3026             printf
     0000526A  A$printfld/printf$3027             printf
     0000526C  A$printfld/printf$3028             printf
     0000526F  A$printfld/printf$3029             printf
     00005272  A$printfld/printf$3033             printf
     00005272  C$printf.c$736$6_0$93              printf
     00005275  A$printfld/printf$3034             printf
     00005276  A$printfld/printf$3035             printf
     00005279  A$printfld/printf$3036             printf
     0000527A  A$printfld/printf$3037             printf
     0000527C  A$printfld/printf$3038             printf
     0000527D  A$printfld/printf$3039             printf
     0000527E  A$printfld/printf$3040             printf
     00005281  A$printfld/printf$3041             printf
     00005284  A$printfld/printf$3042             printf
     00005287  A$printfld/printf$3043             printf
     00005289  A$printfld/printf$3045             printf
     0000528C  A$printfld/printf$3046             printf
     0000528F  A$printfld/printf$3047             printf
     00005290  A$printfld/printf$3048             printf
     00005291  A$printfld/printf$3049             printf
     00005292  A$printfld/printf$3050             printf
     00005293  A$printfld/printf$3051             printf
     00005295  A$printfld/printf$3053             printf
     00005298  A$printfld/printf$3054             printf
     00005299  A$printfld/printf$3055             printf
     0000529A  A$printfld/printf$3056             printf
ASxxxx Linker V03.00 + NoICE + sdld,  page 50.
Hexadecimal  [32-Bits]

Area                                    Addr        Size        Decimal Bytes (Attributes)
--------------------------------        ----        ----        ------- ----- ------------
_CODE                               00004000    00003D6A =       15722. bytes (REL,CON)

      Value  Global                              Global Defined In Module
      -----  --------------------------------   ------------------------
     0000529B  A$printfld/printf$3057             printf
     0000529C  A$printfld/printf$3058             printf
     0000529E  A$printfld/printf$3059             printf
     0000529F  A$printfld/printf$3060             printf
     000052A0  A$printfld/printf$3061             printf
     000052A1  A$printfld/printf$3063             printf
     000052A4  A$printfld/printf$3064             printf
     000052A8  A$printfld/printf$3065             printf
     000052AA  A$printfld/printf$3066             printf
     000052AD  A$printfld/printf$3067             printf
     000052B0  A$printfld/printf$3068             printf
     000052B1  A$printfld/printf$3069             printf
     000052B3  A$printfld/printf$3070             printf
     000052B5  A$printfld/printf$3071             printf
     000052B8  A$printfld/printf$3072             printf
     000052BB  A$printfld/printf$3073             printf
     000052BC  A$printfld/printf$3074             printf
     000052BE  A$printfld/printf$3075             printf
     000052C0  A$printfld/printf$3076             printf
     000052C3  A$printfld/printf$3077             printf
     000052C6  A$printfld/printf$3078             printf
     000052C7  A$printfld/printf$3079             printf
     000052C9  A$printfld/printf$3080             printf
     000052CB  A$printfld/printf$3081             printf
     000052CE  A$printfld/printf$3082             printf
     000052D1  A$printfld/printf$3083             printf
     000052D2  A$printfld/printf$3084             printf
     000052D5  A$printfld/printf$3085             printf
     000052D8  A$printfld/printf$3086             printf
     000052D9  A$printfld/printf$3087             printf
     000052DC  A$printfld/printf$3088             printf
     000052DD  A$printfld/printf$3089             printf
     000052DE  A$printfld/printf$3090             printf
     000052DF  A$printfld/printf$3091             printf
     000052E0  A$printfld/printf$3092             printf
     000052E1  A$printfld/printf$3093             printf
     000052E2  A$printfld/printf$3094             printf
     000052E5  A$printfld/printf$3095             printf
     000052E6  A$printfld/printf$3096             printf
     000052E7  A$printfld/printf$3097             printf
     000052E8  A$printfld/printf$3098             printf
     000052E9  A$printfld/printf$3099             printf
     000052EA  A$printfld/printf$3100             printf
     000052ED  A$printfld/printf$3101             printf
     000052EE  A$printfld/printf$3102             printf
     000052EF  A$printfld/printf$3103             printf
     000052F0  A$printfld/printf$3104             printf
     000052F1  A$printfld/printf$3105             printf
     000052F2  A$printfld/printf$3106             printf
     000052F6  A$printfld/printf$3107             printf
     000052F8  A$printfld/printf$3108             printf
ASxxxx Linker V03.00 + NoICE + sdld,  page 51.
Hexadecimal  [32-Bits]

Area                                    Addr        Size        Decimal Bytes (Attributes)
--------------------------------        ----        ----        ------- ----- ------------
_CODE                               00004000    00003D6A =       15722. bytes (REL,CON)

      Value  Global                              Global Defined In Module
      -----  --------------------------------   ------------------------
     000052FB  A$printfld/printf$3109             printf
     000052FE  A$printfld/printf$3110             printf
     000052FF  A$printfld/printf$3111             printf
     00005301  A$printfld/printf$3112             printf
     00005303  A$printfld/printf$3113             printf
     00005306  A$printfld/printf$3114             printf
     00005309  A$printfld/printf$3115             printf
     0000530A  A$printfld/printf$3116             printf
     0000530D  A$printfld/printf$3117             printf
     00005311  A$printfld/printf$3118             printf
     00005313  A$printfld/printf$3119             printf
     00005315  A$printfld/printf$3120             printf
     00005319  A$printfld/printf$3121             printf
     0000531B  A$printfld/printf$3122             printf
     0000531E  A$printfld/printf$3123             printf
     00005321  A$printfld/printf$3124             printf
     00005324  A$printfld/printf$3129             printf
     00005324  C$printf.c$741$5_0$94              printf
     00005325  A$printfld/printf$3130             printf
     00005326  A$printfld/printf$3131             printf
     00005329  A$printfld/printf$3135             printf
     00005329  C$printf.c$732$1_0$64              printf
     0000532C  A$printfld/printf$3136             printf
     0000532D  A$printfld/printf$3137             printf
     0000532E  A$printfld/printf$3138             printf
     00005332  A$printfld/printf$3139             printf
     00005334  A$printfld/printf$3140             printf
     00005337  A$printfld/printf$3141             printf
     0000533A  A$printfld/printf$3142             printf
     0000533B  A$printfld/printf$3143             printf
     0000533C  A$printfld/printf$3144             printf
     00005340  A$printfld/printf$3145             printf
     00005342  A$printfld/printf$3146             printf
     00005345  A$printfld/printf$3147             printf
     00005346  A$printfld/printf$3148             printf
     00005349  A$printfld/printf$3149             printf
     0000534C  A$printfld/printf$3153             printf
     0000534C  C$printf.c$746$5_0$94              printf
     0000534F  A$printfld/printf$3154             printf
     00005350  A$printfld/printf$3155             printf
     00005351  A$printfld/printf$3156             printf
     00005352  A$printfld/printf$3157             printf
     00005355  A$printfld/printf$3161             printf
     00005355  C$printf.c$747$6_0$96              printf
     00005359  A$printfld/printf$3162             printf
     0000535B  A$printfld/printf$3163             printf
     0000535E  A$printfld/printf$3164             printf
     00005360  A$printfld/printf$3165             printf
     00005361  A$printfld/printf$3166             printf
     00005364  A$printfld/printf$3167             printf
     00005366  A$printfld/printf$3168             printf
ASxxxx Linker V03.00 + NoICE + sdld,  page 52.
Hexadecimal  [32-Bits]

Area                                    Addr        Size        Decimal Bytes (Attributes)
--------------------------------        ----        ----        ------- ----- ------------
_CODE                               00004000    00003D6A =       15722. bytes (REL,CON)

      Value  Global                              Global Defined In Module
      -----  --------------------------------   ------------------------
     00005367  A$printfld/printf$3169             printf
     0000536A  A$printfld/printf$3170             printf
     0000536D  A$printfld/printf$3171             printf
     0000536E  A$printfld/printf$3172             printf
     00005370  A$printfld/printf$3173             printf
     00005371  A$printfld/printf$3174             printf
     00005372  A$printfld/printf$3175             printf
     00005374  A$printfld/printf$3176             printf
     00005375  A$printfld/printf$3177             printf
     00005376  A$printfld/printf$3178             printf
     00005377  A$printfld/printf$3179             printf
     00005378  A$printfld/printf$3180             printf
     00005379  A$printfld/printf$3181             printf
     0000537A  A$printfld/printf$3182             printf
     0000537B  A$printfld/printf$3183             printf
     0000537C  A$printfld/printf$3184             printf
     0000537D  A$printfld/printf$3185             printf
     00005381  A$printfld/printf$3186             printf
     00005383  A$printfld/printf$3187             printf
     00005386  A$printfld/printf$3188             printf
     00005389  A$printfld/printf$3189             printf
     0000538A  A$printfld/printf$3190             printf
     0000538C  A$printfld/printf$3191             printf
     0000538E  A$printfld/printf$3192             printf
     00005391  A$printfld/printf$3193             printf
     00005394  A$printfld/printf$3194             printf
     00005395  A$printfld/printf$3195             printf
     00005397  A$printfld/printf$3196             printf
     00005399  A$printfld/printf$3197             printf
     0000539C  A$printfld/printf$3198             printf
     0000539F  A$printfld/printf$3199             printf
     000053A0  A$printfld/printf$3200             printf
     000053A4  A$printfld/printf$3201             printf
     000053A6  A$printfld/printf$3202             printf
     000053A9  A$printfld/printf$3203             printf
     000053AC  A$printfld/printf$3204             printf
     000053AD  A$printfld/printf$3205             printf
     000053B0  A$printfld/printf$3206             printf
     000053B3  A$printfld/printf$3207             printf
     000053B4  A$printfld/printf$3208             printf
     000053B5  A$printfld/printf$3209             printf
     000053B6  A$printfld/printf$3210             printf
     000053B7  A$printfld/printf$3211             printf
     000053B8  A$printfld/printf$3212             printf
     000053B9  A$printfld/printf$3213             printf
     000053BC  A$printfld/printf$3214             printf
     000053BD  A$printfld/printf$3215             printf
     000053BE  A$printfld/printf$3216             printf
     000053BF  A$printfld/printf$3217             printf
     000053C0  A$printfld/printf$3218             printf
     000053C1  A$printfld/printf$3219             printf
ASxxxx Linker V03.00 + NoICE + sdld,  page 53.
Hexadecimal  [32-Bits]

Area                                    Addr        Size        Decimal Bytes (Attributes)
--------------------------------        ----        ----        ------- ----- ------------
_CODE                               00004000    00003D6A =       15722. bytes (REL,CON)

      Value  Global                              Global Defined In Module
      -----  --------------------------------   ------------------------
     000053C4  A$printfld/printf$3220             printf
     000053C5  A$printfld/printf$3221             printf
     000053C6  A$printfld/printf$3222             printf
     000053C7  A$printfld/printf$3223             printf
     000053C8  A$printfld/printf$3224             printf
     000053C9  A$printfld/printf$3225             printf
     000053CD  A$printfld/printf$3226             printf
     000053CF  A$printfld/printf$3227             printf
     000053D2  A$printfld/printf$3228             printf
     000053D5  A$printfld/printf$3229             printf
     000053D6  A$printfld/printf$3230             printf
     000053D8  A$printfld/printf$3231             printf
     000053DA  A$printfld/printf$3232             printf
     000053DD  A$printfld/printf$3233             printf
     000053E0  A$printfld/printf$3234             printf
     000053E1  A$printfld/printf$3235             printf
     000053E4  A$printfld/printf$3236             printf
     000053E8  A$printfld/printf$3237             printf
     000053EA  A$printfld/printf$3238             printf
     000053EC  A$printfld/printf$3239             printf
     000053F0  A$printfld/printf$3240             printf
     000053F2  A$printfld/printf$3241             printf
     000053F5  A$printfld/printf$3242             printf
     000053F8  A$printfld/printf$3243             printf
     000053FB  A$printfld/printf$3248             printf
     000053FB  C$printf.c$620$1_0$64              printf
     000053FE  A$printfld/printf$3249             printf
     000053FF  A$printfld/printf$3250             printf
     00005403  A$printfld/printf$3251             printf
     00005405  A$printfld/printf$3252             printf
     00005408  A$printfld/printf$3253             printf
     0000540A  A$printfld/printf$3254             printf
     0000540B  A$printfld/printf$3255             printf
     0000540E  A$printfld/printf$3256             printf
     00005410  A$printfld/printf$3257             printf
     00005411  A$printfld/printf$3258             printf
     00005412  A$printfld/printf$3262             printf
     00005412  C$printf.c$735$1_0$64              printf
     00005415  A$printfld/printf$3263             printf
     00005416  A$printfld/printf$3264             printf
     00005417  A$printfld/printf$3265             printf
     00005418  A$printfld/printf$3266             printf
     00005419  A$printfld/printf$3267             printf
     0000541A  A$printfld/printf$3268             printf
     0000541B  A$printfld/printf$3272             printf
     0000541B  C$printf.c$750$1_0$64              printf
     0000541C  A$printfld/printf$3273             printf
     0000541D  A$printfld/printf$3274             printf
     0000541E  A$printfld/printf$3275             printf
     0000541F  A$printfld/printf$3276             printf
     00005420  A$printfld/printf$3277             printf
ASxxxx Linker V03.00 + NoICE + sdld,  page 54.
Hexadecimal  [32-Bits]

Area                                    Addr        Size        Decimal Bytes (Attributes)
--------------------------------        ----        ----        ------- ----- ------------
_CODE                               00004000    00003D6A =       15722. bytes (REL,CON)

      Value  Global                              Global Defined In Module
      -----  --------------------------------   ------------------------
     00005423  A$printfld/printf$3278             printf
     00005424  A$printfld/printf$3279             printf
     00005425  A$printfld/printf$3280             printf
     00005427  A$printfld/printf$3281             printf
     00005429  A$printfld/printf$3282             printf
     0000542C  A$printfld/printf$3283             printf
     0000542D  A$printfld/printf$3284             printf
     0000542E  A$printfld/printf$3285             printf
     00005432  A$printfld/printf$3286             printf
     00005434  A$printfld/printf$3287             printf
     00005437  A$printfld/printf$3288             printf
     0000543A  A$printfld/printf$3289             printf
     0000543B  A$printfld/printf$3290             printf
     0000543C  A$printfld/printf$3291             printf
     00005440  A$printfld/printf$3292             printf
     00005442  A$printfld/printf$3293             printf
     00005445  A$printfld/printf$3294             printf
     00005447  A$printfld/printf$3295             printf
     00005449  A$printfld/printf$3297             printf
     0000544C  A$printfld/printf$3298             printf
     0000544D  A$printfld/printf$3299             printf
     0000544E  A$printfld/printf$3300             printf
     0000544F  A$printfld/printf$3301             printf
     00005451  A$printfld/printf$3302             printf
     00005454  A$printfld/printf$3303             printf
     00005455  A$printfld/printf$3304             printf
     00005456  A$printfld/printf$3305             printf
     0000545A  A$printfld/printf$3306             printf
     0000545C  A$printfld/printf$3307             printf
     0000545F  A$printfld/printf$3308             printf
     00005462  A$printfld/printf$3309             printf
     00005463  A$printfld/printf$3310             printf
     00005464  A$printfld/printf$3311             printf
     00005468  A$printfld/printf$3312             printf
     0000546A  A$printfld/printf$3313             printf
     0000546D  A$printfld/printf$3314             printf
     0000546F  A$printfld/printf$3316             printf
     00005472  A$printfld/printf$3317             printf
     00005473  A$printfld/printf$3318             printf
     00005474  A$printfld/printf$3319             printf
     00005478  A$printfld/printf$3320             printf
     0000547A  A$printfld/printf$3321             printf
     0000547D  A$printfld/printf$3322             printf
     00005480  A$printfld/printf$3323             printf
     00005481  A$printfld/printf$3324             printf
     00005482  A$printfld/printf$3325             printf
     00005486  A$printfld/printf$3326             printf
     00005488  A$printfld/printf$3327             printf
     0000548B  A$printfld/printf$3333             printf
     0000548B  C$printf.c$751$6_0$97              printf
     0000548E  A$printfld/printf$3334             printf
ASxxxx Linker V03.00 + NoICE + sdld,  page 55.
Hexadecimal  [32-Bits]

Area                                    Addr        Size        Decimal Bytes (Attributes)
--------------------------------        ----        ----        ------- ----- ------------
_CODE                               00004000    00003D6A =       15722. bytes (REL,CON)

      Value  Global                              Global Defined In Module
      -----  --------------------------------   ------------------------
     00005492  A$printfld/printf$3335             printf
     00005494  A$printfld/printf$3336             printf
     00005497  A$printfld/printf$3337             printf
     0000549A  A$printfld/printf$3338             printf
     0000549B  A$printfld/printf$3339             printf
     0000549D  A$printfld/printf$3340             printf
     0000549F  A$printfld/printf$3341             printf
     000054A2  A$printfld/printf$3342             printf
     000054A5  A$printfld/printf$3343             printf
     000054A6  A$printfld/printf$3344             printf
     000054A8  A$printfld/printf$3345             printf
     000054AA  A$printfld/printf$3346             printf
     000054AD  A$printfld/printf$3347             printf
     000054B0  A$printfld/printf$3348             printf
     000054B1  A$printfld/printf$3349             printf
     000054B5  A$printfld/printf$3350             printf
     000054B7  A$printfld/printf$3351             printf
     000054BA  A$printfld/printf$3352             printf
     000054BD  A$printfld/printf$3353             printf
     000054BE  A$printfld/printf$3354             printf
     000054C1  A$printfld/printf$3355             printf
     000054C4  A$printfld/printf$3356             printf
     000054C5  A$printfld/printf$3357             printf
     000054C6  A$printfld/printf$3358             printf
     000054C7  A$printfld/printf$3359             printf
     000054C8  A$printfld/printf$3360             printf
     000054C9  A$printfld/printf$3361             printf
     000054CA  A$printfld/printf$3362             printf
     000054CD  A$printfld/printf$3363             printf
     000054CE  A$printfld/printf$3364             printf
     000054CF  A$printfld/printf$3365             printf
     000054D0  A$printfld/printf$3366             printf
     000054D1  A$printfld/printf$3367             printf
     000054D2  A$printfld/printf$3368             printf
     000054D5  A$printfld/printf$3369             printf
     000054D6  A$printfld/printf$3370             printf
     000054D7  A$printfld/printf$3371             printf
     000054D8  A$printfld/printf$3372             printf
     000054D9  A$printfld/printf$3373             printf
     000054DA  A$printfld/printf$3374             printf
     000054DE  A$printfld/printf$3375             printf
     000054E0  A$printfld/printf$3376             printf
     000054E3  A$printfld/printf$3377             printf
     000054E6  A$printfld/printf$3378             printf
     000054E7  A$printfld/printf$3379             printf
     000054E9  A$printfld/printf$3380             printf
     000054EB  A$printfld/printf$3381             printf
     000054EE  A$printfld/printf$3382             printf
     000054F1  A$printfld/printf$3383             printf
     000054F2  A$printfld/printf$3384             printf
     000054F5  A$printfld/printf$3385             printf
ASxxxx Linker V03.00 + NoICE + sdld,  page 56.
Hexadecimal  [32-Bits]

Area                                    Addr        Size        Decimal Bytes (Attributes)
--------------------------------        ----        ----        ------- ----- ------------
_CODE                               00004000    00003D6A =       15722. bytes (REL,CON)

      Value  Global                              Global Defined In Module
      -----  --------------------------------   ------------------------
     000054F9  A$printfld/printf$3386             printf
     000054FB  A$printfld/printf$3387             printf
     000054FD  A$printfld/printf$3388             printf
     00005501  A$printfld/printf$3389             printf
     00005503  A$printfld/printf$3390             printf
     00005506  A$printfld/printf$3391             printf
     00005509  A$printfld/printf$3396             printf
     00005509  C$printf.c$754$4_0$82              printf
     0000550D  A$printfld/printf$3397             printf
     0000550F  A$printfld/printf$3398             printf
     00005512  A$printfld/printf$3399             printf
     00005515  A$printfld/printf$3400             printf
     00005518  A$printfld/printf$3404             printf
     00005518  C$printf.c$755$4_0$82              printf
     0000551B  A$printfld/printf$3412             printf
     0000551B  C$printf.c$776$3_0$81              printf
     0000551B  C$printf.c$777$5_0$98              printf
     0000551F  A$printfld/printf$3413             printf
     00005521  A$printfld/printf$3414             printf
     00005525  A$printfld/printf$3415             printf
     00005526  A$printfld/printf$3416             printf
     00005529  A$printfld/printf$3420             printf
     0000552C  A$printfld/printf$3421             printf
     0000552D  A$printfld/printf$3422             printf
     0000552E  A$printfld/printf$3423             printf
     00005530  A$printfld/printf$3424             printf
     00005534  A$printfld/printf$3425             printf
     00005536  A$printfld/printf$3426             printf
     00005539  A$printfld/printf$3427             printf
     0000553D  A$printfld/printf$3431             printf
     0000553D  C$printf.c$592$1_0$64              printf
     00005540  A$printfld/printf$3432             printf
     00005541  A$printfld/printf$3433             printf
     00005542  A$printfld/printf$3434             printf
     00005546  A$printfld/printf$3435             printf
     00005548  A$printfld/printf$3436             printf
     0000554B  A$printfld/printf$3437             printf
     0000554E  A$printfld/printf$3438             printf
     0000554F  A$printfld/printf$3439             printf
     00005550  A$printfld/printf$3440             printf
     00005554  A$printfld/printf$3441             printf
     00005556  A$printfld/printf$3442             printf
     00005559  A$printfld/printf$3446             printf
     00005559  C$printf.c$779$4_0$98              printf
     0000555B  A$printfld/printf$3447             printf
     0000555D  A$printfld/printf$3448             printf
     00005560  A$printfld/printf$3449             printf
     00005563  A$printfld/printf$3450             printf
     00005565  A$printfld/printf$3454             printf
     00005565  C$printf.c$780$1_0$64              printf
     00005569  A$printfld/printf$3455             printf
ASxxxx Linker V03.00 + NoICE + sdld,  page 57.
Hexadecimal  [32-Bits]

Area                                    Addr        Size        Decimal Bytes (Attributes)
--------------------------------        ----        ----        ------- ----- ------------
_CODE                               00004000    00003D6A =       15722. bytes (REL,CON)

      Value  Global                              Global Defined In Module
      -----  --------------------------------   ------------------------
     0000556B  A$printfld/printf$3456             printf
     0000556F  A$printfld/printf$3457             printf
     00005570  A$printfld/printf$3458             printf
     00005573  A$printfld/printf$3460             printf
     00005577  A$printfld/printf$3461             printf
     00005579  A$printfld/printf$3462             printf
     0000557C  A$printfld/printf$3463             printf
     0000557F  A$printfld/printf$3464             printf
     00005582  A$printfld/printf$3465             printf
     00005584  A$printfld/printf$3466             printf
     00005587  A$printfld/printf$3468             printf
     0000558A  A$printfld/printf$3469             printf
     0000558B  A$printfld/printf$3470             printf
     0000558C  A$printfld/printf$3471             printf
     0000558D  A$printfld/printf$3472             printf
     0000558E  A$printfld/printf$3473             printf
     0000558F  A$printfld/printf$3474             printf
     00005590  A$printfld/printf$3475             printf
     00005592  A$printfld/printf$3479             printf
     00005592  C$printf.c$781$6_0$100             printf
     00005594  A$printfld/printf$3480             printf
     00005596  A$printfld/printf$3481             printf
     00005599  A$printfld/printf$3482             printf
     0000559C  A$printfld/printf$3483             printf
     0000559F  A$printfld/printf$3484             printf
     000055A1  A$printfld/printf$3485             printf
     000055A4  A$printfld/printf$3487             printf
     000055A7  A$printfld/printf$3488             printf
     000055A8  A$printfld/printf$3489             printf
     000055A9  A$printfld/printf$3490             printf
     000055AA  A$printfld/printf$3491             printf
     000055AB  A$printfld/printf$3492             printf
     000055AC  A$printfld/printf$3493             printf
     000055AD  A$printfld/printf$3494             printf
     000055AE  A$printfld/printf$3495             printf
     000055B1  A$printfld/printf$3496             printf
     000055B2  A$printfld/printf$3497             printf
     000055B3  A$printfld/printf$3498             printf
     000055B4  A$printfld/printf$3499             printf
     000055B5  A$printfld/printf$3500             printf
     000055B6  A$printfld/printf$3501             printf
     000055B8  A$printfld/printf$3502             printf
     000055B9  A$printfld/printf$3503             printf
     000055BA  A$printfld/printf$3504             printf
     000055BD  A$printfld/printf$3505             printf
     000055BE  A$printfld/printf$3506             printf
     000055BF  A$printfld/printf$3507             printf
     000055C0  A$printfld/printf$3508             printf
     000055C1  A$printfld/printf$3509             printf
     000055C2  A$printfld/printf$3510             printf
     000055C5  A$printfld/printf$3511             printf
ASxxxx Linker V03.00 + NoICE + sdld,  page 58.
Hexadecimal  [32-Bits]

Area                                    Addr        Size        Decimal Bytes (Attributes)
--------------------------------        ----        ----        ------- ----- ------------
_CODE                               00004000    00003D6A =       15722. bytes (REL,CON)

      Value  Global                              Global Defined In Module
      -----  --------------------------------   ------------------------
     000055C8  A$printfld/printf$3512             printf
     000055C9  A$printfld/printf$3513             printf
     000055CA  A$printfld/printf$3514             printf
     000055CC  A$printfld/printf$3520             printf
     000055CC  C$printf.c$785$4_0$98              printf
     000055D0  A$printfld/printf$3521             printf
     000055D2  A$printfld/printf$3522             printf
     000055D5  A$printfld/printf$3523             printf
     000055D8  A$printfld/printf$3524             printf
     000055DB  A$printfld/printf$3525             printf
     000055DD  A$printfld/printf$3526             printf
     000055E0  A$printfld/printf$3528             printf
     000055E4  A$printfld/printf$3529             printf
     000055E6  A$printfld/printf$3530             printf
     000055E9  A$printfld/printf$3531             printf
     000055EC  A$printfld/printf$3532             printf
     000055ED  A$printfld/printf$3533             printf
     000055EE  A$printfld/printf$3534             printf
     000055F1  A$printfld/printf$3535             printf
     000055F4  A$printfld/printf$3536             printf
     000055F5  A$printfld/printf$3537             printf
     000055F6  A$printfld/printf$3538             printf
     000055F7  A$printfld/printf$3539             printf
     000055F8  A$printfld/printf$3540             printf
     000055FB  A$printfld/printf$3541             printf
     000055FC  A$printfld/printf$3542             printf
     000055FD  A$printfld/printf$3543             printf
     000055FE  A$printfld/printf$3544             printf
     000055FF  A$printfld/printf$3545             printf
     00005600  A$printfld/printf$3546             printf
     00005601  A$printfld/printf$3547             printf
     00005602  A$printfld/printf$3548             printf
     00005605  A$printfld/printf$3549             printf
     00005606  A$printfld/printf$3550             printf
     00005607  A$printfld/printf$3551             printf
     00005608  A$printfld/printf$3552             printf
     00005609  A$printfld/printf$3553             printf
     0000560A  A$printfld/printf$3554             printf
     0000560B  A$printfld/printf$3555             printf
     0000560C  A$printfld/printf$3556             printf
     0000560F  A$printfld/printf$3557             printf
     00005610  A$printfld/printf$3558             printf
     00005611  A$printfld/printf$3559             printf
     00005612  A$printfld/printf$3560             printf
     00005613  A$printfld/printf$3561             printf
     00005614  A$printfld/printf$3562             printf
     00005617  A$printfld/printf$3563             printf
     0000561A  A$printfld/printf$3564             printf
     0000561B  A$printfld/printf$3565             printf
     0000561C  A$printfld/printf$3569             printf
     0000561C  C$printf.c$787$4_0$98              printf
ASxxxx Linker V03.00 + NoICE + sdld,  page 59.
Hexadecimal  [32-Bits]

Area                                    Addr        Size        Decimal Bytes (Attributes)
--------------------------------        ----        ----        ------- ----- ------------
_CODE                               00004000    00003D6A =       15722. bytes (REL,CON)

      Value  Global                              Global Defined In Module
      -----  --------------------------------   ------------------------
     00005620  A$printfld/printf$3570             printf
     00005622  A$printfld/printf$3571             printf
     00005625  A$printfld/printf$3572             printf
     00005628  A$printfld/printf$3573             printf
     0000562A  A$printfld/printf$3577             printf
     0000562A  C$printf.c$788$1_0$64              printf
     0000562C  A$printfld/printf$3578             printf
     0000562E  A$printfld/printf$3579             printf
     00005631  A$printfld/printf$3580             printf
     00005634  A$printfld/printf$3582             printf
     00005637  A$printfld/printf$3583             printf
     00005638  A$printfld/printf$3584             printf
     0000563C  A$printfld/printf$3585             printf
     0000563E  A$printfld/printf$3586             printf
     00005641  A$printfld/printf$3587             printf
     00005642  A$printfld/printf$3588             printf
     00005645  A$printfld/printf$3589             printf
     00005646  A$printfld/printf$3590             printf
     00005647  A$printfld/printf$3591             printf
     00005649  A$printfld/printf$3592             printf
     0000564C  A$printfld/printf$3593             printf
     0000564E  A$printfld/printf$3594             printf
     00005651  A$printfld/printf$3599             printf
     00005651  C$printf.c$789$6_0$102             printf
     00005652  A$printfld/printf$3600             printf
     00005653  A$printfld/printf$3601             printf
     00005654  A$printfld/printf$3602             printf
     00005655  A$printfld/printf$3603             printf
     00005658  A$printfld/printf$3604             printf
     00005659  A$printfld/printf$3605             printf
     0000565A  A$printfld/printf$3606             printf
     0000565B  A$printfld/printf$3607             printf
     0000565C  A$printfld/printf$3608             printf
     0000565D  A$printfld/printf$3609             printf
     0000565E  A$printfld/printf$3610             printf
     00005661  A$printfld/printf$3611             printf
     00005662  A$printfld/printf$3612             printf
     00005663  A$printfld/printf$3613             printf
     00005664  A$printfld/printf$3614             printf
     00005665  A$printfld/printf$3615             printf
     00005666  A$printfld/printf$3616             printf
     00005668  A$printfld/printf$3617             printf
     00005669  A$printfld/printf$3618             printf
     0000566A  A$printfld/printf$3619             printf
     0000566D  A$printfld/printf$3620             printf
     0000566E  A$printfld/printf$3621             printf
     0000566F  A$printfld/printf$3622             printf
     00005670  A$printfld/printf$3623             printf
     00005671  A$printfld/printf$3624             printf
     00005672  A$printfld/printf$3625             printf
     00005675  A$printfld/printf$3626             printf
ASxxxx Linker V03.00 + NoICE + sdld,  page 60.
Hexadecimal  [32-Bits]

Area                                    Addr        Size        Decimal Bytes (Attributes)
--------------------------------        ----        ----        ------- ----- ------------
_CODE                               00004000    00003D6A =       15722. bytes (REL,CON)

      Value  Global                              Global Defined In Module
      -----  --------------------------------   ------------------------
     00005678  A$printfld/printf$3627             printf
     00005679  A$printfld/printf$3628             printf
     0000567A  A$printfld/printf$3629             printf
     0000567B  A$printfld/printf$3630             printf
     0000567D  A$printfld/printf$3632             printf
     00005681  A$printfld/printf$3633             printf
     00005683  A$printfld/printf$3634             printf
     00005686  A$printfld/printf$3635             printf
     00005689  A$printfld/printf$3640             printf
     00005689  C$printf.c$792$4_0$98              printf
     0000568D  A$printfld/printf$3641             printf
     0000568F  A$printfld/printf$3642             printf
     00005692  A$printfld/printf$3643             printf
     00005695  A$printfld/printf$3644             printf
     00005698  A$printfld/printf$3648             printf
     00005698  C$printf.c$793$4_0$98              printf
     0000569B  A$printfld/printf$3656             printf
     0000569B  C$printf.c$796$3_0$81              printf
     0000569B  C$printf.c$797$4_0$103             printf
     0000569F  A$printfld/printf$3657             printf
     000056A1  A$printfld/printf$3658             printf
     000056A4  A$printfld/printf$3659             printf
     000056A7  A$printfld/printf$3660             printf
     000056A8  A$printfld/printf$3661             printf
     000056A9  A$printfld/printf$3662             printf
     000056AC  A$printfld/printf$3663             printf
     000056AF  A$printfld/printf$3664             printf
     000056B0  A$printfld/printf$3665             printf
     000056B1  A$printfld/printf$3666             printf
     000056B2  A$printfld/printf$3667             printf
     000056B3  A$printfld/printf$3668             printf
     000056B4  A$printfld/printf$3669             printf
     000056B8  A$printfld/printf$3670             printf
     000056BA  A$printfld/printf$3671             printf
     000056BD  A$printfld/printf$3672             printf
     000056BE  A$printfld/printf$3673             printf
     000056BF  A$printfld/printf$3674             printf
     000056C2  A$printfld/printf$3678             printf
     000056C2  C$printf.c$798$5_0$117             printf
     000056C4  A$printfld/printf$3679             printf
     000056C6  A$printfld/printf$3680             printf
     000056C9  A$printfld/printf$3681             printf
     000056CC  A$printfld/printf$3682             printf
     000056CE  A$printfld/printf$3683             printf
     000056D1  A$printfld/printf$3684             printf
     000056D4  A$printfld/printf$3685             printf
     000056D6  A$printfld/printf$3687             printf
     000056D9  A$printfld/printf$3689             printf
     000056DD  A$printfld/printf$3690             printf
     000056DF  A$printfld/printf$3691             printf
     000056E2  A$printfld/printf$3692             printf
ASxxxx Linker V03.00 + NoICE + sdld,  page 61.
Hexadecimal  [32-Bits]

Area                                    Addr        Size        Decimal Bytes (Attributes)
--------------------------------        ----        ----        ------- ----- ------------
_CODE                               00004000    00003D6A =       15722. bytes (REL,CON)

      Value  Global                              Global Defined In Module
      -----  --------------------------------   ------------------------
     000056E5  A$printfld/printf$3693             printf
     000056E8  A$printfld/printf$3694             printf
     000056E9  A$printfld/printf$3695             printf
     000056EA  A$printfld/printf$3696             printf
     000056EE  A$printfld/printf$3697             printf
     000056F0  A$printfld/printf$3698             printf
     000056F3  A$printfld/printf$3699             printf
     000056F6  A$printfld/printf$3700             printf
     000056F7  A$printfld/printf$3701             printf
     000056F8  A$printfld/printf$3702             printf
     000056FC  A$printfld/printf$3703             printf
     000056FE  A$printfld/printf$3704             printf
     00005701  A$printfld/printf$3705             printf
     00005704  A$printfld/printf$3706             printf
     00005705  A$printfld/printf$3707             printf
     00005706  A$printfld/printf$3708             printf
     00005707  A$printfld/printf$3709             printf
     00005708  A$printfld/printf$3711             printf
     00005709  A$printfld/printf$3712             printf
     0000570A  A$printfld/printf$3713             printf
     0000570C  A$printfld/printf$3714             printf
     0000570F  A$printfld/printf$3715             printf
     00005710  A$printfld/printf$3716             printf
     00005711  A$printfld/printf$3717             printf
     00005712  A$printfld/printf$3718             printf
     00005713  A$printfld/printf$3719             printf
     00005716  A$printfld/printf$3720             printf
     00005717  A$printfld/printf$3721             printf
     00005718  A$printfld/printf$3722             printf
     0000571A  A$printfld/printf$3723             printf
     0000571B  A$printfld/printf$3724             printf
     0000571C  A$printfld/printf$3725             printf
     0000571D  A$printfld/printf$3726             printf
     0000571F  A$printfld/printf$3727             printf
     00005720  A$printfld/printf$3728             printf
     00005721  A$printfld/printf$3729             printf
     00005722  A$printfld/printf$3730             printf
     00005724  A$printfld/printf$3731             printf
     00005725  A$printfld/printf$3732             printf
     00005727  A$printfld/printf$3734             printf
     0000572A  A$printfld/printf$3735             printf
     0000572B  A$printfld/printf$3736             printf
     0000572C  A$printfld/printf$3737             printf
     0000572D  A$printfld/printf$3738             printf
     0000572E  A$printfld/printf$3739             printf
     0000572F  A$printfld/printf$3740             printf
     00005730  A$printfld/printf$3741             printf
     00005731  A$printfld/printf$3742             printf
     00005732  A$printfld/printf$3743             printf
     00005736  A$printfld/printf$3744             printf
     00005738  A$printfld/printf$3745             printf
ASxxxx Linker V03.00 + NoICE + sdld,  page 62.
Hexadecimal  [32-Bits]

Area                                    Addr        Size        Decimal Bytes (Attributes)
--------------------------------        ----        ----        ------- ----- ------------
_CODE                               00004000    00003D6A =       15722. bytes (REL,CON)

      Value  Global                              Global Defined In Module
      -----  --------------------------------   ------------------------
     0000573B  A$printfld/printf$3746             printf
     0000573E  A$printfld/printf$3750             printf
     0000573E  C$printf.c$800$4_0$103             printf
     00005742  A$printfld/printf$3751             printf
     00005744  A$printfld/printf$3752             printf
     00005748  A$printfld/printf$3753             printf
     0000574B  A$printfld/printf$3754             printf
     0000574C  A$printfld/printf$3755             printf
     0000574D  A$printfld/printf$3756             printf
     0000574F  A$printfld/printf$3757             printf
     00005753  A$printfld/printf$3758             printf
     00005755  A$printfld/printf$3759             printf
     00005758  A$printfld/printf$3760             printf
     0000575B  A$printfld/printf$3761             printf
     0000575E  A$printfld/printf$3762             printf
     00005760  A$printfld/printf$3766             printf
     00005760  C$printf.c$801$5_0$104             printf
     00005763  A$printfld/printf$3767             printf
     00005764  A$printfld/printf$3768             printf
     00005765  A$printfld/printf$3769             printf
     00005766  A$printfld/printf$3770             printf
     00005767  A$printfld/printf$3771             printf
     00005768  A$printfld/printf$3772             printf
     00005769  A$printfld/printf$3773             printf
     0000576B  A$printfld/printf$3774             printf
     0000576E  A$printfld/printf$3775             printf
     0000576F  A$printfld/printf$3776             printf
     00005770  A$printfld/printf$3777             printf
     00005771  A$printfld/printf$3778             printf
     00005772  A$printfld/printf$3780             printf
     00005776  A$printfld/printf$3781             printf
     00005778  A$printfld/printf$3782             printf
     0000577B  A$printfld/printf$3783             printf
     0000577E  A$printfld/printf$3788             printf
     0000577E  C$printf.c$803$4_0$103             printf
     00005781  A$printfld/printf$3789             printf
     00005782  A$printfld/printf$3790             printf
     00005783  A$printfld/printf$3791             printf
     00005785  A$printfld/printf$3792             printf
     00005789  A$printfld/printf$3793             printf
     0000578B  A$printfld/printf$3794             printf
     0000578E  A$printfld/printf$3795             printf
     00005792  A$printfld/printf$3796             printf
     00005795  A$printfld/printf$3797             printf
     00005798  A$printfld/printf$3798             printf
     0000579B  A$printfld/printf$3803             printf
     0000579B  C$printf.c$804$1_0$64              printf
     0000579F  A$printfld/printf$3804             printf
     000057A1  A$printfld/printf$3805             printf
     000057A4  A$printfld/printf$3806             printf
     000057A7  A$printfld/printf$3807             printf
ASxxxx Linker V03.00 + NoICE + sdld,  page 63.
Hexadecimal  [32-Bits]

Area                                    Addr        Size        Decimal Bytes (Attributes)
--------------------------------        ----        ----        ------- ----- ------------
_CODE                               00004000    00003D6A =       15722. bytes (REL,CON)

      Value  Global                              Global Defined In Module
      -----  --------------------------------   ------------------------
     000057AA  A$printfld/printf$3808             printf
     000057AC  A$printfld/printf$3809             printf
     000057AF  A$printfld/printf$3811             printf
     000057B2  A$printfld/printf$3812             printf
     000057B3  A$printfld/printf$3813             printf
     000057B4  A$printfld/printf$3814             printf
     000057B5  A$printfld/printf$3815             printf
     000057B6  A$printfld/printf$3816             printf
     000057B7  A$printfld/printf$3817             printf
     000057B8  A$printfld/printf$3818             printf
     000057BA  A$printfld/printf$3822             printf
     000057BA  C$printf.c$805$6_0$106             printf
     000057BC  A$printfld/printf$3823             printf
     000057BE  A$printfld/printf$3824             printf
     000057C1  A$printfld/printf$3825             printf
     000057C5  A$printfld/printf$3826             printf
     000057C7  A$printfld/printf$3827             printf
     000057CA  A$printfld/printf$3828             printf
     000057CD  A$printfld/printf$3829             printf
     000057CE  A$printfld/printf$3830             printf
     000057CF  A$printfld/printf$3831             printf
     000057D3  A$printfld/printf$3832             printf
     000057D5  A$printfld/printf$3833             printf
     000057D8  A$printfld/printf$3834             printf
     000057DC  A$printfld/printf$3835             printf
     000057DE  A$printfld/printf$3836             printf
     000057E1  A$printfld/printf$3837             printf
     000057E3  A$printfld/printf$3838             printf
     000057E6  A$printfld/printf$3840             printf
     000057EA  A$printfld/printf$3841             printf
     000057EC  A$printfld/printf$3842             printf
     000057EF  A$printfld/printf$3843             printf
     000057F2  A$printfld/printf$3844             printf
     000057F4  A$printfld/printf$3845             printf
     000057F6  A$printfld/printf$3846             printf
     000057F9  A$printfld/printf$3847             printf
     000057FC  A$printfld/printf$3848             printf
     000057FD  A$printfld/printf$3849             printf
     00005800  A$printfld/printf$3850             printf
     00005801  A$printfld/printf$3851             printf
     00005802  A$printfld/printf$3852             printf
     00005803  A$printfld/printf$3853             printf
     00005804  A$printfld/printf$3854             printf
     00005805  A$printfld/printf$3855             printf
     00005806  A$printfld/printf$3856             printf
     00005807  A$printfld/printf$3857             printf
     00005809  A$printfld/printf$3858             printf
     0000580A  A$printfld/printf$3859             printf
     0000580B  A$printfld/printf$3860             printf
     0000580E  A$printfld/printf$3861             printf
     0000580F  A$printfld/printf$3862             printf
ASxxxx Linker V03.00 + NoICE + sdld,  page 64.
Hexadecimal  [32-Bits]

Area                                    Addr        Size        Decimal Bytes (Attributes)
--------------------------------        ----        ----        ------- ----- ------------
_CODE                               00004000    00003D6A =       15722. bytes (REL,CON)

      Value  Global                              Global Defined In Module
      -----  --------------------------------   ------------------------
     00005810  A$printfld/printf$3863             printf
     00005811  A$printfld/printf$3864             printf
     00005812  A$printfld/printf$3865             printf
     00005813  A$printfld/printf$3866             printf
     00005816  A$printfld/printf$3867             printf
     00005819  A$printfld/printf$3868             printf
     0000581A  A$printfld/printf$3869             printf
     0000581B  A$printfld/printf$3870             printf
     0000581E  A$printfld/printf$3876             printf
     0000581E  C$printf.c$809$1_0$64              printf
     00005821  A$printfld/printf$3877             printf
     00005822  A$printfld/printf$3878             printf
     00005823  A$printfld/printf$3879             printf
     00005827  A$printfld/printf$3880             printf
     00005829  A$printfld/printf$3881             printf
     0000582C  A$printfld/printf$3882             printf
     0000582F  A$printfld/printf$3883             printf
     00005830  A$printfld/printf$3884             printf
     00005831  A$printfld/printf$3885             printf
     00005835  A$printfld/printf$3886             printf
     00005837  A$printfld/printf$3887             printf
     0000583A  A$printfld/printf$3888             printf
     0000583D  A$printfld/printf$3889             printf
     0000583E  A$printfld/printf$3890             printf
     0000583F  A$printfld/printf$3891             printf
     00005843  A$printfld/printf$3892             printf
     00005845  A$printfld/printf$3893             printf
     00005848  A$printfld/printf$3894             printf
     0000584B  A$printfld/printf$3895             printf
     0000584C  A$printfld/printf$3896             printf
     0000584D  A$printfld/printf$3897             printf
     00005851  A$printfld/printf$3898             printf
     00005853  A$printfld/printf$3899             printf
     00005856  A$printfld/printf$3901             printf
     00005859  A$printfld/printf$3902             printf
     0000585A  A$printfld/printf$3903             printf
     0000585B  A$printfld/printf$3904             printf
     0000585C  A$printfld/printf$3905             printf
     0000585D  A$printfld/printf$3906             printf
     0000585E  A$printfld/printf$3907             printf
     0000585F  A$printfld/printf$3908             printf
     00005863  A$printfld/printf$3909             printf
     00005865  A$printfld/printf$3910             printf
     00005868  A$printfld/printf$3911             printf
     0000586B  A$printfld/printf$3912             printf
     0000586C  A$printfld/printf$3913             printf
     0000586F  A$printfld/printf$3914             printf
     00005872  A$printfld/printf$3915             printf
     00005873  A$printfld/printf$3916             printf
     00005874  A$printfld/printf$3917             printf
     00005875  A$printfld/printf$3918             printf
ASxxxx Linker V03.00 + NoICE + sdld,  page 65.
Hexadecimal  [32-Bits]

Area                                    Addr        Size        Decimal Bytes (Attributes)
--------------------------------        ----        ----        ------- ----- ------------
_CODE                               00004000    00003D6A =       15722. bytes (REL,CON)

      Value  Global                              Global Defined In Module
      -----  --------------------------------   ------------------------
     00005876  A$printfld/printf$3919             printf
     00005878  A$printfld/printf$3920             printf
     0000587C  A$printfld/printf$3921             printf
     0000587E  A$printfld/printf$3922             printf
     00005881  A$printfld/printf$3923             printf
     00005883  A$printfld/printf$3924             printf
     00005885  A$printfld/printf$3925             printf
     00005888  A$printfld/printf$3926             printf
     0000588A  A$printfld/printf$3927             printf
     0000588C  A$printfld/printf$3928             printf
     0000588F  A$printfld/printf$3929             printf
     00005891  A$printfld/printf$3930             printf
     00005893  A$printfld/printf$3931             printf
     00005896  A$printfld/printf$3932             printf
     00005899  A$printfld/printf$3933             printf
     0000589A  A$printfld/printf$3934             printf
     0000589B  A$printfld/printf$3935             printf
     0000589D  A$printfld/printf$3936             printf
     0000589E  A$printfld/printf$3937             printf
     0000589F  A$printfld/printf$3938             printf
     000058A0  A$printfld/printf$3939             printf
     000058A2  A$printfld/printf$3940             printf
     000058A3  A$printfld/printf$3941             printf
     000058A6  A$printfld/printf$3942             printf
     000058A9  A$printfld/printf$3943             printf
     000058AB  A$printfld/printf$3948             printf
     000058AB  C$printf.c$810$5_0$107             printf
     000058AF  A$printfld/printf$3949             printf
     000058B1  A$printfld/printf$3950             printf
     000058B4  A$printfld/printf$3951             printf
     000058B7  A$printfld/printf$3952             printf
     000058BA  A$printfld/printf$3953             printf
     000058BC  A$printfld/printf$3954             printf
     000058BF  A$printfld/printf$3956             printf
     000058C2  A$printfld/printf$3957             printf
     000058C3  A$printfld/printf$3958             printf
     000058C4  A$printfld/printf$3959             printf
     000058C5  A$printfld/printf$3960             printf
     000058C6  A$printfld/printf$3961             printf
     000058CA  A$printfld/printf$3962             printf
     000058CC  A$printfld/printf$3963             printf
     000058CF  A$printfld/printf$3964             printf
     000058D1  A$printfld/printf$3965             printf
     000058D4  A$printfld/printf$3967             printf
     000058D7  A$printfld/printf$3968             printf
     000058D8  A$printfld/printf$3969             printf
     000058D9  A$printfld/printf$3970             printf
     000058DA  A$printfld/printf$3971             printf
     000058DB  A$printfld/printf$3972             printf
     000058DC  A$printfld/printf$3973             printf
     000058DD  A$printfld/printf$3974             printf
ASxxxx Linker V03.00 + NoICE + sdld,  page 66.
Hexadecimal  [32-Bits]

Area                                    Addr        Size        Decimal Bytes (Attributes)
--------------------------------        ----        ----        ------- ----- ------------
_CODE                               00004000    00003D6A =       15722. bytes (REL,CON)

      Value  Global                              Global Defined In Module
      -----  --------------------------------   ------------------------
     000058DE  A$printfld/printf$3975             printf
     000058DF  A$printfld/printf$3976             printf
     000058E2  A$printfld/printf$3977             printf
     000058E3  A$printfld/printf$3978             printf
     000058E4  A$printfld/printf$3979             printf
     000058E5  A$printfld/printf$3980             printf
     000058E6  A$printfld/printf$3981             printf
     000058E9  A$printfld/printf$3982             printf
     000058EA  A$printfld/printf$3983             printf
     000058EB  A$printfld/printf$3984             printf
     000058EC  A$printfld/printf$3985             printf
     000058ED  A$printfld/printf$3986             printf
     000058EE  A$printfld/printf$3987             printf
     000058F1  A$printfld/printf$3988             printf
     000058F4  A$printfld/printf$3989             printf
     000058F5  A$printfld/printf$3990             printf
     000058F6  A$printfld/printf$3991             printf
     000058F9  A$printfld/printf$3993             printf
     000058FC  A$printfld/printf$3994             printf
     000058FD  A$printfld/printf$3995             printf
     000058FE  A$printfld/printf$3996             printf
     00005902  A$printfld/printf$3997             printf
     00005904  A$printfld/printf$3998             printf
     00005907  A$printfld/printf$3999             printf
     0000590A  A$printfld/printf$4000             printf
     0000590B  A$printfld/printf$4001             printf
     0000590C  A$printfld/printf$4002             printf
     00005910  A$printfld/printf$4003             printf
     00005912  A$printfld/printf$4004             printf
     00005915  A$printfld/printf$4008             printf
     00005915  C$printf.c$813$4_0$103             printf
     00005917  A$printfld/printf$4009             printf
     00005919  A$printfld/printf$4010             printf
     0000591C  A$printfld/printf$4011             printf
     0000591F  A$printfld/printf$4012             printf
     00005921  A$printfld/printf$4016             printf
     00005921  C$printf.c$814$1_0$64              printf
     00005924  A$printfld/printf$4017             printf
     00005925  A$printfld/printf$4018             printf
     00005926  A$printfld/printf$4019             printf
     00005927  A$printfld/printf$4020             printf
     00005928  A$printfld/printf$4022             printf
     0000592B  A$printfld/printf$4023             printf
     0000592C  A$printfld/printf$4024             printf
     00005930  A$printfld/printf$4025             printf
     00005932  A$printfld/printf$4026             printf
     00005935  A$printfld/printf$4027             printf
     00005936  A$printfld/printf$4028             printf
     00005939  A$printfld/printf$4029             printf
     0000593A  A$printfld/printf$4030             printf
     0000593B  A$printfld/printf$4031             printf
ASxxxx Linker V03.00 + NoICE + sdld,  page 67.
Hexadecimal  [32-Bits]

Area                                    Addr        Size        Decimal Bytes (Attributes)
--------------------------------        ----        ----        ------- ----- ------------
_CODE                               00004000    00003D6A =       15722. bytes (REL,CON)

      Value  Global                              Global Defined In Module
      -----  --------------------------------   ------------------------
     0000593D  A$printfld/printf$4032             printf
     00005940  A$printfld/printf$4033             printf
     00005942  A$printfld/printf$4034             printf
     00005945  A$printfld/printf$4039             printf
     00005945  C$printf.c$815$6_0$109             printf
     00005947  A$printfld/printf$4040             printf
     00005949  A$printfld/printf$4041             printf
     0000594C  A$printfld/printf$4042             printf
     0000594F  A$printfld/printf$4043             printf
     00005950  A$printfld/printf$4044             printf
     00005954  A$printfld/printf$4045             printf
     00005956  A$printfld/printf$4046             printf
     00005959  A$printfld/printf$4047             printf
     0000595C  A$printfld/printf$4048             printf
     0000595D  A$printfld/printf$4049             printf
     0000595F  A$printfld/printf$4050             printf
     00005961  A$printfld/printf$4051             printf
     00005964  A$printfld/printf$4052             printf
     00005967  A$printfld/printf$4053             printf
     00005968  A$printfld/printf$4054             printf
     0000596B  A$printfld/printf$4055             printf
     0000596C  A$printfld/printf$4056             printf
     0000596D  A$printfld/printf$4057             printf
     0000596E  A$printfld/printf$4058             printf
     0000596F  A$printfld/printf$4059             printf
     00005970  A$printfld/printf$4060             printf
     00005971  A$printfld/printf$4061             printf
     00005973  A$printfld/printf$4062             printf
     00005974  A$printfld/printf$4063             printf
     00005975  A$printfld/printf$4064             printf
     00005978  A$printfld/printf$4065             printf
     00005979  A$printfld/printf$4066             printf
     0000597A  A$printfld/printf$4067             printf
     0000597B  A$printfld/printf$4068             printf
     0000597C  A$printfld/printf$4069             printf
     0000597D  A$printfld/printf$4070             printf
     00005980  A$printfld/printf$4071             printf
     00005983  A$printfld/printf$4072             printf
     00005984  A$printfld/printf$4073             printf
     00005985  A$printfld/printf$4074             printf
     00005986  A$printfld/printf$4075             printf
     00005988  A$printfld/printf$4077             printf
     0000598C  A$printfld/printf$4078             printf
     0000598E  A$printfld/printf$4079             printf
     00005991  A$printfld/printf$4080             printf
     00005994  A$printfld/printf$4085             printf
     00005994  C$printf.c$818$4_0$103             printf
     00005998  A$printfld/printf$4086             printf
     0000599A  A$printfld/printf$4087             printf
     0000599D  A$printfld/printf$4088             printf
     000059A0  A$printfld/printf$4089             printf
ASxxxx Linker V03.00 + NoICE + sdld,  page 68.
Hexadecimal  [32-Bits]

Area                                    Addr        Size        Decimal Bytes (Attributes)
--------------------------------        ----        ----        ------- ----- ------------
_CODE                               00004000    00003D6A =       15722. bytes (REL,CON)

      Value  Global                              Global Defined In Module
      -----  --------------------------------   ------------------------
     000059A3  A$printfld/printf$4093             printf
     000059A3  C$printf.c$819$4_0$103             printf
     000059A6  A$printfld/printf$4101             printf
     000059A6  C$printf.c$822$3_0$81              printf
     000059A6  C$printf.c$824$4_0$110             printf
     000059A9  A$printfld/printf$4102             printf
     000059AA  A$printfld/printf$4103             printf
     000059AB  A$printfld/printf$4104             printf
     000059AD  A$printfld/printf$4105             printf
     000059B1  A$printfld/printf$4106             printf
     000059B3  A$printfld/printf$4107             printf
     000059B6  A$printfld/printf$4108             printf
     000059B9  A$printfld/printf$4109             printf
     000059BA  A$printfld/printf$4110             printf
     000059BB  A$printfld/printf$4111             printf
     000059BF  A$printfld/printf$4112             printf
     000059C1  A$printfld/printf$4113             printf
     000059C4  A$printfld/printf$4117             printf
     000059C4  C$printf.c$832$4_0$110             printf
     000059C8  A$printfld/printf$4118             printf
     000059CA  A$printfld/printf$4119             printf
     000059CD  A$printfld/printf$4120             printf
     000059D0  A$printfld/printf$4121             printf
     000059D1  A$printfld/printf$4122             printf
     000059D2  A$printfld/printf$4123             printf
     000059D5  A$printfld/printf$4124             printf
     000059D8  A$printfld/printf$4125             printf
     000059D9  A$printfld/printf$4126             printf
     000059DA  A$printfld/printf$4127             printf
     000059DB  A$printfld/printf$4128             printf
     000059DC  A$printfld/printf$4129             printf
     000059DD  A$printfld/printf$4130             printf
     000059DE  A$printfld/printf$4131             printf
     000059DF  A$printfld/printf$4132             printf
     000059E2  A$printfld/printf$4133             printf
     000059E5  A$printfld/printf$4134             printf
     000059E6  A$printfld/printf$4135             printf
     000059E7  A$printfld/printf$4136             printf
     000059E8  A$printfld/printf$4137             printf
     000059E9  A$printfld/printf$4138             printf
     000059EA  A$printfld/printf$4139             printf
     000059EB  A$printfld/printf$4140             printf
     000059EE  A$printfld/printf$4141             printf
     000059EF  A$printfld/printf$4142             printf
     000059F2  A$printfld/printf$4143             printf
     000059F3  A$printfld/printf$4144             printf
     000059F4  A$printfld/printf$4145             printf
     000059F5  A$printfld/printf$4146             printf
     000059F6  A$printfld/printf$4147             printf
     000059F7  A$printfld/printf$4148             printf
     000059F8  A$printfld/printf$4149             printf
ASxxxx Linker V03.00 + NoICE + sdld,  page 69.
Hexadecimal  [32-Bits]

Area                                    Addr        Size        Decimal Bytes (Attributes)
--------------------------------        ----        ----        ------- ----- ------------
_CODE                               00004000    00003D6A =       15722. bytes (REL,CON)

      Value  Global                              Global Defined In Module
      -----  --------------------------------   ------------------------
     000059FB  A$printfld/printf$4150             printf
     000059FC  A$printfld/printf$4151             printf
     000059FF  A$printfld/printf$4152             printf
     00005A00  A$printfld/printf$4153             printf
     00005A01  A$printfld/printf$4154             printf
     00005A02  A$printfld/printf$4155             printf
     00005A03  A$printfld/printf$4156             printf
     00005A04  A$printfld/printf$4157             printf
     00005A05  A$printfld/printf$4158             printf
     00005A08  A$printfld/printf$4159             printf
     00005A09  A$printfld/printf$4160             printf
     00005A0A  A$printfld/printf$4161             printf
     00005A0B  A$printfld/printf$4162             printf
     00005A0C  A$printfld/printf$4163             printf
     00005A0D  A$printfld/printf$4164             printf
     00005A10  A$printfld/printf$4165             printf
     00005A11  A$printfld/printf$4166             printf
     00005A12  A$printfld/printf$4167             printf
     00005A13  A$printfld/printf$4168             printf
     00005A14  A$printfld/printf$4169             printf
     00005A15  A$printfld/printf$4170             printf
     00005A19  A$printfld/printf$4171             printf
     00005A1B  A$printfld/printf$4172             printf
     00005A1E  A$printfld/printf$4173             printf
     00005A21  A$printfld/printf$4174             printf
     00005A22  A$printfld/printf$4175             printf
     00005A24  A$printfld/printf$4176             printf
     00005A26  A$printfld/printf$4177             printf
     00005A29  A$printfld/printf$4178             printf
     00005A2C  A$printfld/printf$4179             printf
     00005A2D  A$printfld/printf$4180             printf
     00005A30  A$printfld/printf$4181             printf
     00005A34  A$printfld/printf$4182             printf
     00005A36  A$printfld/printf$4183             printf
     00005A38  A$printfld/printf$4184             printf
     00005A3C  A$printfld/printf$4185             printf
     00005A3E  A$printfld/printf$4186             printf
     00005A41  A$printfld/printf$4187             printf
     00005A44  A$printfld/printf$4191             printf
     00005A44  C$printf.c$836$4_0$110             printf
     00005A48  A$printfld/printf$4192             printf
     00005A4A  A$printfld/printf$4193             printf
     00005A4D  A$printfld/printf$4194             printf
     00005A50  A$printfld/printf$4195             printf
     00005A53  A$printfld/printf$4199             printf
     00005A53  C$printf.c$837$4_0$110             printf
     00005A56  A$printfld/printf$4207             printf
     00005A56  C$printf.c$840$3_0$81              printf
     00005A56  C$printf.c$841$3_0$81              printf
     00005A5A  A$printfld/printf$4208             printf
     00005A5C  A$printfld/printf$4209             printf
ASxxxx Linker V03.00 + NoICE + sdld,  page 70.
Hexadecimal  [32-Bits]

Area                                    Addr        Size        Decimal Bytes (Attributes)
--------------------------------        ----        ----        ------- ----- ------------
_CODE                               00004000    00003D6A =       15722. bytes (REL,CON)

      Value  Global                              Global Defined In Module
      -----  --------------------------------   ------------------------
     00005A5F  A$printfld/printf$4210             printf
     00005A62  A$printfld/printf$4211             printf
     00005A65  A$printfld/printf$4212             printf
     00005A67  A$printfld/printf$4213             printf
     00005A6A  A$printfld/printf$4215             printf
     00005A6E  A$printfld/printf$4216             printf
     00005A70  A$printfld/printf$4217             printf
     00005A73  A$printfld/printf$4218             printf
     00005A76  A$printfld/printf$4219             printf
     00005A78  A$printfld/printf$4220             printf
     00005A7A  A$printfld/printf$4221             printf
     00005A7D  A$printfld/printf$4222             printf
     00005A80  A$printfld/printf$4223             printf
     00005A81  A$printfld/printf$4224             printf
     00005A82  A$printfld/printf$4225             printf
     00005A83  A$printfld/printf$4226             printf
     00005A85  A$printfld/printf$4227             printf
     00005A86  A$printfld/printf$4228             printf
     00005A87  A$printfld/printf$4229             printf
     00005A8A  A$printfld/printf$4230             printf
     00005A8B  A$printfld/printf$4231             printf
     00005A8C  A$printfld/printf$4232             printf
     00005A8D  A$printfld/printf$4233             printf
     00005A8E  A$printfld/printf$4234             printf
     00005A8F  A$printfld/printf$4235             printf
     00005A92  A$printfld/printf$4236             printf
     00005A95  A$printfld/printf$4237             printf
     00005A96  A$printfld/printf$4238             printf
     00005A97  A$printfld/printf$4242             printf
     00005A97  C$printf.c$842$3_0$81              printf
     00005A9B  A$printfld/printf$4243             printf
     00005A9D  A$printfld/printf$4244             printf
     00005AA0  A$printfld/printf$4245             printf
     00005AA3  A$printfld/printf$4246             printf
     00005AA6  A$printfld/printf$4250             printf
     00005AA6  C$printf.c$843$3_0$81              printf
     00005AA9  A$printfld/printf$4258             printf
     00005AA9  C$printf.c$845$3_0$81              printf
     00005AA9  C$printf.c$846$3_0$81              printf
     00005AAD  A$printfld/printf$4259             printf
     00005AAF  A$printfld/printf$4260             printf
     00005AB2  A$printfld/printf$4261             printf
     00005AB5  A$printfld/printf$4262             printf
     00005AB8  A$printfld/printf$4263             printf
     00005ABA  A$printfld/printf$4264             printf
     00005ABD  A$printfld/printf$4266             printf
     00005AC1  A$printfld/printf$4267             printf
     00005AC3  A$printfld/printf$4268             printf
     00005AC6  A$printfld/printf$4269             printf
     00005AC9  A$printfld/printf$4270             printf
     00005ACB  A$printfld/printf$4271             printf
ASxxxx Linker V03.00 + NoICE + sdld,  page 71.
Hexadecimal  [32-Bits]

Area                                    Addr        Size        Decimal Bytes (Attributes)
--------------------------------        ----        ----        ------- ----- ------------
_CODE                               00004000    00003D6A =       15722. bytes (REL,CON)

      Value  Global                              Global Defined In Module
      -----  --------------------------------   ------------------------
     00005ACD  A$printfld/printf$4272             printf
     00005AD0  A$printfld/printf$4273             printf
     00005AD3  A$printfld/printf$4274             printf
     00005AD4  A$printfld/printf$4275             printf
     00005AD5  A$printfld/printf$4276             printf
     00005AD6  A$printfld/printf$4277             printf
     00005AD9  A$printfld/printf$4278             printf
     00005ADA  A$printfld/printf$4279             printf
     00005ADB  A$printfld/printf$4280             printf
     00005ADC  A$printfld/printf$4281             printf
     00005ADD  A$printfld/printf$4282             printf
     00005AE0  A$printfld/printf$4283             printf
     00005AE1  A$printfld/printf$4284             printf
     00005AE2  A$printfld/printf$4285             printf
     00005AE3  A$printfld/printf$4286             printf
     00005AE4  A$printfld/printf$4287             printf
     00005AE5  A$printfld/printf$4288             printf
     00005AE8  A$printfld/printf$4289             printf
     00005AEB  A$printfld/printf$4290             printf
     00005AEC  A$printfld/printf$4291             printf
     00005AED  A$printfld/printf$4295             printf
     00005AED  C$printf.c$847$3_0$81              printf
     00005AF1  A$printfld/printf$4296             printf
     00005AF3  A$printfld/printf$4297             printf
     00005AF6  A$printfld/printf$4298             printf
     00005AF9  A$printfld/printf$4299             printf
     00005AFC  A$printfld/printf$4303             printf
     00005AFC  C$printf.c$849$1_0$64              printf
     00005AFF  A$printfld/printf$4308             printf
     00005AFF  C$printf.c$853$1_0$64              printf
     00005B02  A$printfld/printf$4309             printf
     00005B03  A$printfld/printf$4310             printf
     00005B07  A$printfld/printf$4311             printf
     00005B09  A$printfld/printf$4312             printf
     00005B0C  A$printfld/printf$4313             printf
     00005B0D  A$printfld/printf$4314             printf
     00005B10  A$printfld/printf$4315             printf
     00005B11  A$printfld/printf$4316             printf
     00005B12  A$printfld/printf$4317             printf
     00005B14  A$printfld/printf$4318             printf
     00005B17  A$printfld/printf$4319             printf
     00005B1A  A$printfld/printf$4320             printf
     00005B1C  A$printfld/printf$4322             printf
     00005B1F  A$printfld/printf$4323             printf
     00005B20  A$printfld/printf$4324             printf
     00005B21  A$printfld/printf$4325             printf
     00005B22  A$printfld/printf$4326             printf
     00005B23  A$printfld/printf$4327             printf
     00005B24  A$printfld/printf$4329             printf
     00005B28  A$printfld/printf$4330             printf
     00005B2A  A$printfld/printf$4331             printf
ASxxxx Linker V03.00 + NoICE + sdld,  page 72.
Hexadecimal  [32-Bits]

Area                                    Addr        Size        Decimal Bytes (Attributes)
--------------------------------        ----        ----        ------- ----- ------------
_CODE                               00004000    00003D6A =       15722. bytes (REL,CON)

      Value  Global                              Global Defined In Module
      -----  --------------------------------   ------------------------
     00005B2D  A$printfld/printf$4332             printf
     00005B30  A$printfld/printf$4333             printf
     00005B32  A$printfld/printf$4334             printf
     00005B34  A$printfld/printf$4335             printf
     00005B37  A$printfld/printf$4336             printf
     00005B3A  A$printfld/printf$4337             printf
     00005B3B  A$printfld/printf$4338             printf
     00005B3C  A$printfld/printf$4339             printf
     00005B3D  A$printfld/printf$4340             printf
     00005B3E  A$printfld/printf$4341             printf
     00005B3F  A$printfld/printf$4342             printf
     00005B40  A$printfld/printf$4343             printf
     00005B43  A$printfld/printf$4344             printf
     00005B44  A$printfld/printf$4345             printf
     00005B45  A$printfld/printf$4346             printf
     00005B46  A$printfld/printf$4347             printf
     00005B47  A$printfld/printf$4348             printf
     00005B48  A$printfld/printf$4349             printf
     00005B4B  A$printfld/printf$4350             printf
     00005B4E  A$printfld/printf$4351             printf
     00005B4F  A$printfld/printf$4352             printf
     00005B50  A$printfld/printf$4356             printf
     00005B50  C$printf.c$856$1_0$64              printf
     00005B53  A$printfld/printf$4357             printf
     00005B54  A$printfld/printf$4358             printf
     00005B55  A$printfld/printf$4359             printf
     00005B56  A$printfld/printf$4360             printf
     00005B57  A$printfld/printf$4361             printf
     00005B58  A$printfld/printf$4365             printf
     00005B5C  A$printfld/printf$4366             printf
     00005B5E  A$printfld/printf$4367             printf
     00005B60  A$printfld/printf$4372             printf
     00005B60  C$printf.c$857$1_0$64              printf
     00005B60  XFprintf$_vsnprintf$0$0            printf
     00005B61  A$printfld/printf$4382             printf
     00005B61  C$printf.c$862$1_0$121             printf
     00005B61  G$printf_$0$0                      printf
     00005B61  _printf_                           printf
     00005B62  A$printfld/printf$4386             printf
     00005B62  C$printf.c$865$2_0$122             printf
     00005B65  A$printfld/printf$4387             printf
     00005B66  A$printfld/printf$4388             printf
     00005B67  A$printfld/printf$4392             printf
     00005B67  C$printf.c$867$1_1$123             printf
     00005B6A  A$printfld/printf$4393             printf
     00005B6B  A$printfld/printf$4394             printf
     00005B6C  A$printfld/printf$4395             printf
     00005B6D  A$printfld/printf$4396             printf
     00005B6E  A$printfld/printf$4397             printf
     00005B71  A$printfld/printf$4398             printf
     00005B72  A$printfld/printf$4399             printf
ASxxxx Linker V03.00 + NoICE + sdld,  page 73.
Hexadecimal  [32-Bits]

Area                                    Addr        Size        Decimal Bytes (Attributes)
--------------------------------        ----        ----        ------- ----- ------------
_CODE                               00004000    00003D6A =       15722. bytes (REL,CON)

      Value  Global                              Global Defined In Module
      -----  --------------------------------   ------------------------
     00005B73  A$printfld/printf$4400             printf
     00005B74  A$printfld/printf$4401             printf
     00005B75  A$printfld/printf$4402             printf
     00005B76  A$printfld/printf$4403             printf
     00005B77  A$printfld/printf$4404             printf
     00005B7A  A$printfld/printf$4405             printf
     00005B7B  A$printfld/printf$4406             printf
     00005B7C  A$printfld/printf$4407             printf
     00005B7F  A$printfld/printf$4408             printf
     00005B80  A$printfld/printf$4409             printf
     00005B83  A$printfld/printf$4410             printf
     00005B87  A$printfld/printf$4411             printf
     00005B89  A$printfld/printf$4412             printf
     00005B8B  A$printfld/printf$4419             printf
     00005B8B  C$printf.c$869$1_1$123             printf
     00005B8C  A$printfld/printf$4424             printf
     00005B8C  C$printf.c$870$1_1$121             printf
     00005B8C  XG$printf_$0$0                     printf
     00005B8D  A$printfld/printf$4437             printf
     00005B8D  C$printf.c$873$1_1$126             printf
     00005B8D  C$printf.c$876$2_0$127             printf
     00005B8D  G$sprintf_$0$0                     printf
     00005B8D  _sprintf_                          printf
     00005B90  A$printfld/printf$4438             printf
     00005B91  A$printfld/printf$4442             printf
     00005B91  C$printf.c$877$1_1$128             printf
     00005B92  A$printfld/printf$4443             printf
     00005B96  A$printfld/printf$4444             printf
     00005B98  A$printfld/printf$4445             printf
     00005B9B  A$printfld/printf$4446             printf
     00005B9E  A$printfld/printf$4447             printf
     00005B9F  A$printfld/printf$4448             printf
     00005BA2  A$printfld/printf$4449             printf
     00005BA3  A$printfld/printf$4450             printf
     00005BA5  A$printfld/printf$4451             printf
     00005BA7  A$printfld/printf$4452             printf
     00005BAA  A$printfld/printf$4453             printf
     00005BAD  A$printfld/printf$4454             printf
     00005BAE  A$printfld/printf$4455             printf
     00005BB1  A$printfld/printf$4456             printf
     00005BB2  A$printfld/printf$4457             printf
     00005BB5  A$printfld/printf$4458             printf
     00005BB9  A$printfld/printf$4459             printf
     00005BBB  A$printfld/printf$4460             printf
     00005BBD  A$printfld/printf$4471             printf
     00005BBD  C$printf.c$879$1_1$128             printf
     00005BBD  C$printf.c$880$1_1$126             printf
     00005BBD  XG$sprintf_$0$0                    printf
     00005BBE  A$printfld/printf$4484             printf
     00005BBE  C$printf.c$883$1_1$131             printf
     00005BBE  C$printf.c$886$2_0$132             printf
ASxxxx Linker V03.00 + NoICE + sdld,  page 74.
Hexadecimal  [32-Bits]

Area                                    Addr        Size        Decimal Bytes (Attributes)
--------------------------------        ----        ----        ------- ----- ------------
_CODE                               00004000    00003D6A =       15722. bytes (REL,CON)

      Value  Global                              Global Defined In Module
      -----  --------------------------------   ------------------------
     00005BBE  G$snprintf_$0$0                    printf
     00005BBE  _snprintf_                         printf
     00005BC1  A$printfld/printf$4485             printf
     00005BC2  A$printfld/printf$4489             printf
     00005BC2  C$printf.c$887$1_1$133             printf
     00005BC3  A$printfld/printf$4490             printf
     00005BC7  A$printfld/printf$4491             printf
     00005BC9  A$printfld/printf$4492             printf
     00005BCC  A$printfld/printf$4493             printf
     00005BCF  A$printfld/printf$4494             printf
     00005BD0  A$printfld/printf$4495             printf
     00005BD2  A$printfld/printf$4496             printf
     00005BD4  A$printfld/printf$4497             printf
     00005BD7  A$printfld/printf$4498             printf
     00005BDA  A$printfld/printf$4499             printf
     00005BDB  A$printfld/printf$4500             printf
     00005BDD  A$printfld/printf$4501             printf
     00005BDF  A$printfld/printf$4502             printf
     00005BE2  A$printfld/printf$4503             printf
     00005BE5  A$printfld/printf$4504             printf
     00005BE6  A$printfld/printf$4505             printf
     00005BE9  A$printfld/printf$4506             printf
     00005BEA  A$printfld/printf$4507             printf
     00005BED  A$printfld/printf$4508             printf
     00005BF1  A$printfld/printf$4509             printf
     00005BF3  A$printfld/printf$4510             printf
     00005BF5  A$printfld/printf$4521             printf
     00005BF5  C$printf.c$889$1_1$133             printf
     00005BF5  C$printf.c$890$1_1$131             printf
     00005BF5  XG$snprintf_$0$0                   printf
     00005BF6  A$printfld/printf$4531             printf
     00005BF6  C$printf.c$893$1_1$136             printf
     00005BF6  G$vprintf_$0$0                     printf
     00005BF6  _vprintf_                          printf
     00005BF7  A$printfld/printf$4535             printf
     00005BF7  C$printf.c$896$1_0$136             printf
     00005BFA  A$printfld/printf$4536             printf
     00005BFB  A$printfld/printf$4537             printf
     00005BFC  A$printfld/printf$4538             printf
     00005C00  A$printfld/printf$4539             printf
     00005C02  A$printfld/printf$4540             printf
     00005C05  A$printfld/printf$4541             printf
     00005C08  A$printfld/printf$4542             printf
     00005C09  A$printfld/printf$4543             printf
     00005C0B  A$printfld/printf$4544             printf
     00005C0D  A$printfld/printf$4545             printf
     00005C10  A$printfld/printf$4546             printf
     00005C13  A$printfld/printf$4547             printf
     00005C14  A$printfld/printf$4548             printf
     00005C17  A$printfld/printf$4549             printf
     00005C18  A$printfld/printf$4550             printf
ASxxxx Linker V03.00 + NoICE + sdld,  page 75.
Hexadecimal  [32-Bits]

Area                                    Addr        Size        Decimal Bytes (Attributes)
--------------------------------        ----        ----        ------- ----- ------------
_CODE                               00004000    00003D6A =       15722. bytes (REL,CON)

      Value  Global                              Global Defined In Module
      -----  --------------------------------   ------------------------
     00005C19  A$printfld/printf$4551             printf
     00005C1C  A$printfld/printf$4552             printf
     00005C1D  A$printfld/printf$4553             printf
     00005C20  A$printfld/printf$4554             printf
     00005C24  A$printfld/printf$4555             printf
     00005C26  A$printfld/printf$4556             printf
     00005C28  A$printfld/printf$4560             printf
     00005C29  A$printfld/printf$4565             printf
     00005C29  C$printf.c$897$1_0$136             printf
     00005C29  XG$vprintf_$0$0                    printf
     00005C2A  A$printfld/printf$4578             printf
     00005C2A  C$printf.c$900$1_0$138             printf
     00005C2A  C$printf.c$902$1_0$138             printf
     00005C2A  G$vsnprintf_$0$0                   printf
     00005C2A  _vsnprintf_                        printf
     00005C2E  A$printfld/printf$4579             printf
     00005C30  A$printfld/printf$4580             printf
     00005C33  A$printfld/printf$4581             printf
     00005C36  A$printfld/printf$4582             printf
     00005C37  A$printfld/printf$4583             printf
     00005C39  A$printfld/printf$4584             printf
     00005C3B  A$printfld/printf$4585             printf
     00005C3E  A$printfld/printf$4586             printf
     00005C41  A$printfld/printf$4587             printf
     00005C42  A$printfld/printf$4588             printf
     00005C44  A$printfld/printf$4589             printf
     00005C46  A$printfld/printf$4590             printf
     00005C49  A$printfld/printf$4591             printf
     00005C4C  A$printfld/printf$4592             printf
     00005C4D  A$printfld/printf$4593             printf
     00005C4F  A$printfld/printf$4594             printf
     00005C51  A$printfld/printf$4595             printf
     00005C54  A$printfld/printf$4596             printf
     00005C57  A$printfld/printf$4597             printf
     00005C58  A$printfld/printf$4598             printf
     00005C5B  A$printfld/printf$4599             printf
     00005C5C  A$printfld/printf$4600             printf
     00005C5F  A$printfld/printf$4601             printf
     00005C63  A$printfld/printf$4602             printf
     00005C65  A$printfld/printf$4603             printf
     00005C67  A$printfld/printf$4611             printf
     00005C67  C$printf.c$903$1_0$138             printf
     00005C67  XG$vsnprintf_$0$0                  printf
     00005C68  A$printfld/printf$4621             printf
     00005C68  C$printf.c$906$1_0$141             printf
     00005C68  G$fctprintf$0$0                    printf
     00005C68  _fctprintf                         printf
     00005C69  A$printfld/printf$4622             printf
     00005C6A  A$printfld/printf$4626             printf
     00005C6A  C$printf.c$909$2_0$142             printf
     00005C6D  A$printfld/printf$4627             printf
ASxxxx Linker V03.00 + NoICE + sdld,  page 76.
Hexadecimal  [32-Bits]

Area                                    Addr        Size        Decimal Bytes (Attributes)
--------------------------------        ----        ----        ------- ----- ------------
_CODE                               00004000    00003D6A =       15722. bytes (REL,CON)

      Value  Global                              Global Defined In Module
      -----  --------------------------------   ------------------------
     00005C6E  A$printfld/printf$4628             printf
     00005C6F  A$printfld/printf$4629             printf
     00005C70  A$printfld/printf$4633             printf
     00005C70  C$printf.c$910$2_0$143             printf
     00005C73  A$printfld/printf$4634             printf
     00005C74  A$printfld/printf$4635             printf
     00005C78  A$printfld/printf$4636             printf
     00005C7A  A$printfld/printf$4637             printf
     00005C7D  A$printfld/printf$4638             printf
     00005C7E  A$printfld/printf$4639             printf
     00005C7F  A$printfld/printf$4640             printf
     00005C82  A$printfld/printf$4641             printf
     00005C83  A$printfld/printf$4642             printf
     00005C86  A$printfld/printf$4643             printf
     00005C87  A$printfld/printf$4644             printf
     00005C88  A$printfld/printf$4645             printf
     00005C89  A$printfld/printf$4646             printf
     00005C8A  A$printfld/printf$4647             printf
     00005C8B  A$printfld/printf$4648             printf
     00005C8C  A$printfld/printf$4649             printf
     00005C8E  A$printfld/printf$4650             printf
     00005C90  A$printfld/printf$4651             printf
     00005C93  A$printfld/printf$4652             printf
     00005C94  A$printfld/printf$4653             printf
     00005C95  A$printfld/printf$4654             printf
     00005C98  A$printfld/printf$4655             printf
     00005C99  A$printfld/printf$4659             printf
     00005C99  C$printf.c$911$1_1$143             printf
     00005C9A  A$printfld/printf$4660             printf
     00005C9C  A$printfld/printf$4661             printf
     00005C9E  A$printfld/printf$4662             printf
     00005CA1  A$printfld/printf$4663             printf
     00005CA4  A$printfld/printf$4664             printf
     00005CA5  A$printfld/printf$4665             printf
     00005CA8  A$printfld/printf$4666             printf
     00005CA9  A$printfld/printf$4667             printf
     00005CAA  A$printfld/printf$4668             printf
     00005CAD  A$printfld/printf$4669             printf
     00005CAE  A$printfld/printf$4670             printf
     00005CB1  A$printfld/printf$4671             printf
     00005CB5  A$printfld/printf$4672             printf
     00005CB7  A$printfld/printf$4673             printf
     00005CB9  A$printfld/printf$4680             printf
     00005CB9  C$printf.c$913$1_1$143             printf
     00005CBA  A$printfld/printf$4681             printf
     00005CBB  A$printfld/printf$4686             printf
     00005CBB  C$printf.c$914$1_1$141             printf
     00005CBB  XG$fctprintf$0$0                   printf
     00005CBC  A$mainuild/main$94                 main
     00005CBC  C$main.c$33$0_0$48                 main
     00005CBC  C$main.c$34$1_0$48                 main
ASxxxx Linker V03.00 + NoICE + sdld,  page 77.
Hexadecimal  [32-Bits]

Area                                    Addr        Size        Decimal Bytes (Attributes)
--------------------------------        ----        ----        ------- ----- ------------
_CODE                               00004000    00003D6A =       15722. bytes (REL,CON)

      Value  Global                              Global Defined In Module
      -----  --------------------------------   ------------------------
     00005CBC  G$put_text$0$0                     main
     00005CBC  _put_text                          main
     00005CC0  A$mainuild/main$95                 main
     00005CC2  A$mainuild/main$96                 main
     00005CC5  A$mainuild/main$97                 main
     00005CC8  A$mainuild/main$98                 main
     00005CCA  A$mainuild/main$99                 main
     00005CCC  A$mainuild/main$100                main
     00005CCF  A$mainuild/main$102                main
     00005CD0  A$mainuild/main$103                main
     00005CD1  A$mainuild/main$104                main
     00005CD2  A$mainuild/main$108                main
     00005CD2  C$main.c$35$2_0$49                 main
     00005CD3  A$mainuild/main$109                main
     00005CD5  A$mainuild/main$110                main
     00005CD6  A$mainuild/main$111                main
     00005CD7  A$mainuild/main$112                main
     00005CD8  A$mainuild/main$113                main
     00005CDC  A$mainuild/main$114                main
     00005CDE  A$mainuild/main$115                main
     00005CE1  A$mainuild/main$116                main
     00005CE2  A$mainuild/main$117                main
     00005CE3  A$mainuild/main$118                main
     00005CE4  A$mainuild/main$119                main
     00005CE5  A$mainuild/main$120                main
     00005CE7  A$mainuild/main$121                main
     00005CEA  A$mainuild/main$122                main
     00005CEB  A$mainuild/main$123                main
     00005CEC  A$mainuild/main$124                main
     00005CED  A$mainuild/main$125                main
     00005CEE  A$mainuild/main$126                main
     00005CF1  A$mainuild/main$127                main
     00005CF2  A$mainuild/main$128                main
     00005CF3  A$mainuild/main$129                main
     00005CF4  A$mainuild/main$130                main
     00005CF5  A$mainuild/main$138                main
     00005CF5  C$main.c$37$1_0$48                 main
     00005CF5  XG$put_text$0$0                    main
     00005CF7  G$tiles$0_0$0                      main
     00005CF7  _tiles                             main
     000064F7  G$tiles_colors$0_0$0               main
     000064F7  _tiles_colors                      main
     00006CF7  A$mainuild/main$4251               main
     00006CF7  C$main.c$42$1_0$50                 main
     00006CF7  C$main.c$43$1_0$50                 main
     00006CF7  G$inc_count$0$0                    main
     00006CF7  _inc_count                         main
     00006CFA  A$mainuild/main$4252               main
     00006CFB  A$mainuild/main$4253               main
     00006CFE  A$mainuild/main$4261               main
     00006CFE  C$main.c$44$1_0$50                 main
ASxxxx Linker V03.00 + NoICE + sdld,  page 78.
Hexadecimal  [32-Bits]

Area                                    Addr        Size        Decimal Bytes (Attributes)
--------------------------------        ----        ----        ------- ----- ------------
_CODE                               00004000    00003D6A =       15722. bytes (REL,CON)

      Value  Global                              Global Defined In Module
      -----  --------------------------------   ------------------------
     00006CFE  XG$inc_count$0$0                   main
     00006CFF  A$mainuild/main$4274               main
     00006CFF  C$main.c$49$1_0$52                 main
     00006CFF  C$main.c$52$1_0$52                 main
     00006CFF  G$_putchar$0$0                     main
     00006CFF  __putchar                          main
     00006D02  A$mainuild/main$4275               main
     00006D03  A$mainuild/main$4276               main
     00006D04  A$mainuild/main$4277               main
     00006D06  A$mainuild/main$4278               main
     00006D08  A$mainuild/main$4282               main
     00006D08  C$main.c$53$2_0$53                 main
     00006D0B  A$mainuild/main$4283               main
     00006D0E  A$mainuild/main$4287               main
     00006D0E  C$main.c$54$2_0$53                 main
     00006D11  A$mainuild/main$4288               main
     00006D12  A$mainuild/main$4289               main
     00006D15  A$mainuild/main$4290               main
     00006D16  A$mainuild/main$4295               main
     00006D16  C$main.c$57$2_0$54                 main
     00006D19  A$mainuild/main$4296               main
     00006D1A  A$mainuild/main$4297               main
     00006D1B  A$mainuild/main$4298               main
     00006D1D  A$mainuild/main$4299               main
     00006D1E  A$mainuild/main$4300               main
     00006D21  A$mainuild/main$4301               main
     00006D22  A$mainuild/main$4302               main
     00006D26  A$mainuild/main$4303               main
     00006D29  A$mainuild/main$4304               main
     00006D2A  A$mainuild/main$4305               main
     00006D2D  A$mainuild/main$4306               main
     00006D2E  A$mainuild/main$4307               main
     00006D2F  A$mainuild/main$4308               main
     00006D30  A$mainuild/main$4309               main
     00006D31  A$mainuild/main$4310               main
     00006D34  A$mainuild/main$4311               main
     00006D35  A$mainuild/main$4312               main
     00006D36  A$mainuild/main$4320               main
     00006D36  C$main.c$59$1_0$52                 main
     00006D36  XG$_putchar$0$0                    main
     00006D37  A$mainuild/main$4330               main
     00006D37  C$main.c$64$1_0$55                 main
     00006D37  G$main$0$0                         main
     00006D37  _main                              main
     00006D3A  A$mainuild/main$4331               main
     00006D3B  A$mainuild/main$4332               main
     00006D3C  A$mainuild/main$4336               main
     00006D3C  C$main.c$71$1_0$55                 main
     00006D3E  A$mainuild/main$4337               main
     00006D41  A$mainuild/main$4341               main
     00006D41  C$main.c$79$1_0$55                 main
ASxxxx Linker V03.00 + NoICE + sdld,  page 79.
Hexadecimal  [32-Bits]

Area                                    Addr        Size        Decimal Bytes (Attributes)
--------------------------------        ----        ----        ------- ----- ------------
_CODE                               00004000    00003D6A =       15722. bytes (REL,CON)

      Value  Global                              Global Defined In Module
      -----  --------------------------------   ------------------------
     00006D43  A$mainuild/main$4342               main
     00006D46  A$mainuild/main$4346               main
     00006D46  C$main.c$82$1_0$55                 main
     00006D49  A$mainuild/main$4347               main
     00006D4A  A$mainuild/main$4348               main
     00006D4C  A$mainuild/main$4349               main
     00006D4D  A$mainuild/main$4350               main
     00006D4E  A$mainuild/main$4351               main
     00006D51  A$mainuild/main$4352               main
     00006D52  A$mainuild/main$4353               main
     00006D53  A$mainuild/main$4357               main
     00006D53  C$main.c$87$1_0$55                 main
     00006D56  A$mainuild/main$4361               main
     00006D56  C$main.c$90$1_0$55                 main
     00006D59  A$mainuild/main$4362               main
     00006D5C  A$mainuild/main$4366               main
     00006D5C  C$main.c$91$1_0$55                 main
     00006D5F  A$mainuild/main$4367               main
     00006D62  A$mainuild/main$4371               main
     00006D62  C$main.c$94$1_0$55                 main
     00006D64  A$mainuild/main$4372               main
     00006D67  A$mainuild/main$4376               main
     00006D67  C$main.c$97$1_0$55                 main
     00006D6A  A$mainuild/main$4377               main
     00006D6B  A$mainuild/main$4378               main
     00006D6E  A$mainuild/main$4379               main
     00006D6F  A$mainuild/main$4380               main
     00006D72  A$mainuild/main$4381               main
     00006D73  A$mainuild/main$4382               main
     00006D74  A$mainuild/main$4386               main
     00006D74  C$main.c$100$1_0$55                main
     00006D77  A$mainuild/main$4390               main
     00006D77  C$main.c$101$1_0$55                main
     00006D7A  A$mainuild/main$4391               main
     00006D7D  A$mainuild/main$4395               main
     00006D7D  C$main.c$104$1_0$55                main
     00006D7E  A$mainuild/main$4396               main
     00006D7F  A$mainuild/main$4397               main
     00006D80  A$mainuild/main$4398               main
     00006D83  A$mainuild/main$4399               main
     00006D84  A$mainuild/main$4400               main
     00006D87  A$mainuild/main$4401               main
     00006D88  A$mainuild/main$4402               main
     00006D89  A$mainuild/main$4406               main
     00006D89  C$main.c$105$1_0$55                main
     00006D8C  A$mainuild/main$4407               main
     00006D8F  A$mainuild/main$4411               main
     00006D8F  C$main.c$106$1_0$55                main
     00006D92  A$mainuild/main$4412               main
     00006D95  A$mainuild/main$4416               main
     00006D95  C$main.c$107$1_0$55                main
ASxxxx Linker V03.00 + NoICE + sdld,  page 80.
Hexadecimal  [32-Bits]

Area                                    Addr        Size        Decimal Bytes (Attributes)
--------------------------------        ----        ----        ------- ----- ------------
_CODE                               00004000    00003D6A =       15722. bytes (REL,CON)

      Value  Global                              Global Defined In Module
      -----  --------------------------------   ------------------------
     00006D98  A$mainuild/main$4420               main
     00006D98  C$main.c$109$1_0$55                main
     00006D9B  A$mainuild/main$4421               main
     00006D9C  A$mainuild/main$4422               main
     00006D9F  A$mainuild/main$4426               main
     00006D9F  C$main.c$110$1_0$55                main
     00006DA2  A$mainuild/main$4427               main
     00006DA3  A$mainuild/main$4428               main
     00006DA6  A$mainuild/main$4432               main
     00006DA6  C$main.c$111$1_0$55                main
     00006DA9  A$mainuild/main$4433               main
     00006DAA  A$mainuild/main$4434               main
     00006DAD  A$mainuild/main$4435               main
     00006DAE  A$mainuild/main$4443               main
     00006DAE  C$main.c$114$1_0$55                main
     00006DAE  C$main.c$118$2_0$56                main
     00006DB2  A$mainuild/main$4444               main
     00006DB5  A$mainuild/main$4445               main
     00006DB7  A$mainuild/main$4446               main
     00006DBA  A$mainuild/main$4447               main
     00006DBB  A$mainuild/main$4448               main
     00006DBC  A$mainuild/main$4449               main
     00006DBD  A$mainuild/main$4450               main
     00006DBF  A$mainuild/main$4451               main
     00006DC1  A$mainuild/main$4455               main
     00006DC1  C$main.c$119$3_0$57                main
     00006DC4  A$mainuild/main$4456               main
     00006DC5  A$mainuild/main$4457               main
     00006DC8  A$mainuild/main$4461               main
     00006DC8  C$main.c$120$3_0$57                main
     00006DCB  A$mainuild/main$4462               main
     00006DCC  A$mainuild/main$4463               main
     00006DCD  A$mainuild/main$4464               main
     00006DCE  A$mainuild/main$4465               main
     00006DCF  A$mainuild/main$4466               main
     00006DD0  A$mainuild/main$4467               main
     00006DD3  A$mainuild/main$4468               main
     00006DD4  A$mainuild/main$4469               main
     00006DD7  A$mainuild/main$4470               main
     00006DD8  A$mainuild/main$4471               main
     00006DD9  A$mainuild/main$4472               main
     00006DDC  A$mainuild/main$4473               main
     00006DDF  A$mainuild/main$4474               main
     00006DE0  A$mainuild/main$4475               main
     00006DE1  A$mainuild/main$4476               main
     00006DE4  A$mainuild/main$4477               main
     00006DE5  A$mainuild/main$4478               main
     00006DE8  A$mainuild/main$4479               main
     00006DE9  A$mainuild/main$4480               main
     00006DEA  A$mainuild/main$4484               main
     00006DEA  C$main.c$122$3_0$57                main
ASxxxx Linker V03.00 + NoICE + sdld,  page 81.
Hexadecimal  [32-Bits]

Area                                    Addr        Size        Decimal Bytes (Attributes)
--------------------------------        ----        ----        ------- ----- ------------
_CODE                               00004000    00003D6A =       15722. bytes (REL,CON)

      Value  Global                              Global Defined In Module
      -----  --------------------------------   ------------------------
     00006DED  A$mainuild/main$4485               main
     00006DF0  A$mainuild/main$4490               main
     00006DF0  C$main.c$126$2_0$56                main
     00006DF2  A$mainuild/main$4491               main
     00006DF5  A$mainuild/main$4492               main
     00006DF6  A$mainuild/main$4493               main
     00006DF8  A$mainuild/main$4494               main
     00006DFA  A$mainuild/main$4498               main
     00006DFA  C$main.c$127$2_0$56                main
     00006DFB  A$mainuild/main$4499               main
     00006DFC  A$mainuild/main$4500               main
     00006DFE  A$mainuild/main$4501               main
     00006DFF  A$mainuild/main$4502               main
     00006E01  A$mainuild/main$4503               main
     00006E02  A$mainuild/main$4504               main
     00006E03  A$mainuild/main$4505               main
     00006E06  A$mainuild/main$4506               main
     00006E07  A$mainuild/main$4507               main
     00006E08  A$mainuild/main$4512               main
     00006E08  C$main.c$129$2_0$56                main
     00006E0A  A$mainuild/main$4513               main
     00006E0D  A$mainuild/main$4514               main
     00006E0E  A$mainuild/main$4515               main
     00006E10  A$mainuild/main$4516               main
     00006E12  A$mainuild/main$4520               main
     00006E12  C$main.c$130$2_0$56                main
     00006E13  A$mainuild/main$4521               main
     00006E14  A$mainuild/main$4522               main
     00006E16  A$mainuild/main$4523               main
     00006E17  A$mainuild/main$4524               main
     00006E19  A$mainuild/main$4525               main
     00006E1A  A$mainuild/main$4526               main
     00006E1B  A$mainuild/main$4527               main
     00006E1E  A$mainuild/main$4528               main
     00006E1F  A$mainuild/main$4529               main
     00006E20  A$mainuild/main$4534               main
     00006E20  C$main.c$132$2_0$56                main
     00006E22  A$mainuild/main$4535               main
     00006E25  A$mainuild/main$4536               main
     00006E26  A$mainuild/main$4537               main
     00006E28  A$mainuild/main$4538               main
     00006E2A  A$mainuild/main$4542               main
     00006E2A  C$main.c$133$2_0$56                main
     00006E2B  A$mainuild/main$4543               main
     00006E2C  A$mainuild/main$4544               main
     00006E2E  A$mainuild/main$4545               main
     00006E2F  A$mainuild/main$4546               main
     00006E31  A$mainuild/main$4547               main
     00006E32  A$mainuild/main$4548               main
     00006E33  A$mainuild/main$4549               main
     00006E36  A$mainuild/main$4550               main
ASxxxx Linker V03.00 + NoICE + sdld,  page 82.
Hexadecimal  [32-Bits]

Area                                    Addr        Size        Decimal Bytes (Attributes)
--------------------------------        ----        ----        ------- ----- ------------
_CODE                               00004000    00003D6A =       15722. bytes (REL,CON)

      Value  Global                              Global Defined In Module
      -----  --------------------------------   ------------------------
     00006E37  A$mainuild/main$4551               main
     00006E38  A$mainuild/main$4556               main
     00006E38  C$main.c$135$2_0$56                main
     00006E3A  A$mainuild/main$4557               main
     00006E3D  A$mainuild/main$4558               main
     00006E3E  A$mainuild/main$4559               main
     00006E40  A$mainuild/main$4560               main
     00006E42  A$mainuild/main$4564               main
     00006E42  C$main.c$136$2_0$56                main
     00006E43  A$mainuild/main$4565               main
     00006E44  A$mainuild/main$4566               main
     00006E46  A$mainuild/main$4567               main
     00006E47  A$mainuild/main$4568               main
     00006E49  A$mainuild/main$4569               main
     00006E4A  A$mainuild/main$4570               main
     00006E4B  A$mainuild/main$4571               main
     00006E4E  A$mainuild/main$4572               main
     00006E4F  A$mainuild/main$4573               main
     00006E50  A$mainuild/main$4578               main
     00006E50  C$main.c$138$2_0$56                main
     00006E52  A$mainuild/main$4579               main
     00006E55  A$mainuild/main$4580               main
     00006E56  A$mainuild/main$4581               main
     00006E58  A$mainuild/main$4582               main
     00006E5A  A$mainuild/main$4586               main
     00006E5A  C$main.c$139$2_0$56                main
     00006E5B  A$mainuild/main$4587               main
     00006E5C  A$mainuild/main$4588               main
     00006E5E  A$mainuild/main$4589               main
     00006E5F  A$mainuild/main$4590               main
     00006E61  A$mainuild/main$4591               main
     00006E62  A$mainuild/main$4592               main
     00006E63  A$mainuild/main$4593               main
     00006E66  A$mainuild/main$4594               main
     00006E67  A$mainuild/main$4595               main
     00006E68  A$mainuild/main$4600               main
     00006E68  C$main.c$140$2_0$56                main
     00006E6B  A$mainuild/main$4601               main
     00006E6E  A$mainuild/main$4605               main
     00006E71  A$mainuild/main$4606               main
     00006E72  A$mainuild/main$4607               main
     00006E73  A$mainuild/main$4612               main
     00006E73  C$main.c$143$1_0$55                main
     00006E73  XG$main$0$0                        main
     00006E74  Fmain$__str_0$0_0$0                main
     00006E83  Fmain$__str_1$0_0$0                main
     00006E97  Fmain$__str_2$0_0$0                main
     00006E9E  Fmain$__str_3$0_0$0                main
     00006EA4  Fmain$__str_4$0_0$0                main
     00006EB0  _PLY_AKM_INITSOUNDEFFECTS          
     00006EB4  _PLY_AKM_PLAYSOUNDEFFECT           
ASxxxx Linker V03.00 + NoICE + sdld,  page 83.
Hexadecimal  [32-Bits]

Area                                    Addr        Size        Decimal Bytes (Attributes)
--------------------------------        ----        ----        ------- ----- ------------
_CODE                               00004000    00003D6A =       15722. bytes (REL,CON)

      Value  Global                              Global Defined In Module
      -----  --------------------------------   ------------------------
     00006EDC  _PLY_AKM_STOPSOUNDEFFECTFROMCHAN   
     00006F99  _PLY_AKM_INIT                      
     0000707B  _PLY_AKM_STOP                      
     00007091  _PLY_AKM_PLAY                      
     00007475  _PLY_AKM_ISSOUNDEFFECTON           
     00007485  _ALIENALL_START                    
     00007485  _SONG                              
     00007B56  _EFFECTS                           
     00007B56  _GREEN_SOUNDEFFECTS                
     00007C35  _ubox_fill_screen                  
     00007C3F  _ubox_enable_screen                
     00007C42  _ubox_set_tiles                    
     00007C61  _mplayer_play_effect_p             mplayer
     00007C83  _ubox_set_mode                     
     00007C87  _ubox_set_user_isr                 
     00007C8D  _ubox_init_isr                     
     00007CD9  _ubox_put_tile                     
     00007CF4  _mplayer_is_sound_effect_on        mplayer
     00007CF7  ___sdcc_call_hl                    
     00007CF8  _mplayer_init_effects              mplayer
     00007CFF  _mplayer_init                      
     00007D14  _mplayer_play                      mplayer
     00007D17  _ubox_disable_screen               
     00007D1A  _ubox_wait                         
     00007D2D  _ubox_read_keys                    
     00007D34  _ubox_set_tiles_colors             
     00007D53  _ubox_set_colors                   

ASxxxx Linker V03.00 + NoICE + sdld,  page 84.
Hexadecimal  [32-Bits]

Area                                    Addr        Size        Decimal Bytes (Attributes)
--------------------------------        ----        ----        ------- ----- ------------
_HOME                               00007D6A    00000145 =         325. bytes (REL,CON)

      Value  Global                              Global Defined In Module
      -----  --------------------------------   ------------------------
     00007D6A  __modulong                         _modulong
     00007E1D  __divulong                         _divulong

ASxxxx Linker V03.00 + NoICE + sdld,  page 85.
Hexadecimal  [32-Bits]

Area                                    Addr        Size        Decimal Bytes (Attributes)
--------------------------------        ----        ----        ------- ----- ------------
_INITIALIZER                        00007EAF    00000008 =           8. bytes (REL,CON)

      Value  Global                              Global Defined In Module
      -----  --------------------------------   ------------------------
     00007EAF  Fmain$__xinit_gcounter$0_0$0       main
     00007EB1  Fmain$__xinit_gcount$0_0$0         main
     00007EB3  Fmain$__xinit_g_x$0_0$0            main
     00007EB5  Fmain$__xinit_g_y$0_0$0            main

ASxxxx Linker V03.00 + NoICE + sdld,  page 86.
Hexadecimal  [32-Bits]

Area                                    Addr        Size        Decimal Bytes (Attributes)
--------------------------------        ----        ----        ------- ----- ------------
_GSINIT                             00007EB7    0000000F =          15. bytes (REL,CON)

      Value  Global                              Global Defined In Module
      -----  --------------------------------   ------------------------
     00007EB7  gsinit                             crt0

ASxxxx Linker V03.00 + NoICE + sdld,  page 87.
Hexadecimal  [32-Bits]

Area                                    Addr        Size        Decimal Bytes (Attributes)
--------------------------------        ----        ----        ------- ----- ------------
_GSFINAL                            00007EC6    00000001 =           1. bytes (REL,CON)

      Value  Global                              Global Defined In Module
      -----  --------------------------------   ------------------------
ASxxxx Linker V03.00 + NoICE + sdld,  page 88.
Hexadecimal  [32-Bits]

Area                                    Addr        Size        Decimal Bytes (Attributes)
--------------------------------        ----        ----        ------- ----- ------------
_DATA                               0000C0DE    00000006 =           6. bytes (REL,CON)

      Value  Global                              Global Defined In Module
      -----  --------------------------------   ------------------------
     0000C0DE  ubox_isr_wait_ticks                
     0000C0DF  ubox_isr_wait_tick                 
     0000C0E0  _ubox_tick                         
     0000C0E1  ubox_usr_isr                       
     0000C0E3  mplayer_current_efx                mplayer

ASxxxx Linker V03.00 + NoICE + sdld,  page 89.
Hexadecimal  [32-Bits]

Area                                    Addr        Size        Decimal Bytes (Attributes)
--------------------------------        ----        ----        ------- ----- ------------
_INITIALIZED                        0000C0E4    00000008 =           8. bytes (REL,CON)

      Value  Global                              Global Defined In Module
      -----  --------------------------------   ------------------------
     0000C0E4  G$gcounter$0_0$0                   main
     0000C0E4  _gcounter                          main
     0000C0E6  G$gcount$0_0$0                     main
     0000C0E6  _gcount                            main
     0000C0E8  G$g_x$0_0$0                        main
     0000C0E8  _g_x                               main
     0000C0EA  G$g_y$0_0$0                        main
     0000C0EA  _g_y                               main

ASxxxx Linker V03.00 + NoICE + sdld,  page 90.

Files Linked                              [ module(s) ]

../build/crt0.rel                         [ crt0 ]
../build/printf.rel                       [ printf ]
../build/main.rel                         [ main ]
../build/akm.rel                          [  ]


Libraries Linked                          [ object file ]

../lib/ubox.lib                           [ ubox_fill_screen.rel ]
../lib/ubox.lib                           [ ubox_enable_screen.rel ]
../lib/ubox.lib                           [ ubox_set_tiles.rel ]
../lib/mplayer.lib                        [ mplayer_play_effect_p.rel ]
../lib/ubox.lib                           [ ubox_set_mode.rel ]
../lib/ubox.lib                           [ ubox_set_user_isr.rel ]
../lib/ubox.lib                           [ ubox_isr.rel ]
../lib/ubox.lib                           [ ubox_put_tile.rel ]
/usr/local/bin/../share/sdcc/lib/z80/z80.lib
                                          [ _modulong.rel ]
../lib/mplayer.lib                        [ mplayer_is_sound_effect_on.rel ]
/usr/local/bin/../share/sdcc/lib/z80/z80.lib
                                          [ _divulong.rel ]
/usr/local/bin/../share/sdcc/lib/z80/z80.lib
                                          [ __sdcc_call_hl.rel ]
../lib/mplayer.lib                        [ mplayer_init_effects.rel ]
../lib/mplayer.lib                        [ mplayer_init.rel ]
../lib/mplayer.lib                        [ mplayer_play.rel ]
../lib/ubox.lib                           [ ubox_disable_screen.rel ]
../lib/ubox.lib                           [ ubox_wait.rel ]
../lib/ubox.lib                           [ ubox_read_keys.rel ]
../lib/ubox.lib                           [ ubox_set_tiles_colors.rel ]
../lib/ubox.lib                           [ ubox_set_colors.rel ]

ASxxxx Linker V03.00 + NoICE + sdld,  page 91.

User Base Address Definitions

_CODE = 0x4000
_DATA = 0xc0de

